(dp0
Vaustralopithecine
p1
(lp2
g1
asVmackerel
p3
(lp4
g3
asVliar
p5
(lp6
g5
asVcaptain
p7
(lp8
Vcaptain
p9
aVskipper
p10
asVvoter
p11
(lp12
g11
aVelector
p13
asVlory
p14
(lp15
g14
asVbuddy
p16
(lp17
g16
aVbrother
p18
aVchum
p19
aVcrony
p20
aVpal
p21
aVsidekick
p22
asVmaidenhair
p23
(lp24
g23
asVcrappie
p25
(lp26
g25
asVauk
p27
(lp28
g27
asVswan
p29
(lp30
g29
asVscold
p31
(lp32
g31
aVnag
p33
asVrightist
p34
(lp35
g34
aVright-winger
p36
asVcasuarina
p37
(lp38
g37
asVsaver
p39
(lp40
g39
asVmerchant
p41
(lp42
g41
aVmerchandiser
p43
asVsaltbush
p44
(lp45
g44
asVredact
p46
(lp47
g46
aVredactor
p48
aVreviser
p49
asVjack
p50
(lp51
g50
asVkudu
p52
(lp53
g52
asVmissionary
p54
(lp55
g54
asVscholar
p56
(lp57
Vscholar
p58
aVbookman
p59
aVstudent
p60
asVparrot
p61
(lp62
g61
asVinvestigator
p63
(lp64
g63
asVvector
p65
(lp66
g65
asVdelegate
p67
(lp68
g67
asVcapsicum
p69
(lp70
g69
aVpepper
p71
asVpoppy
p72
(lp73
g72
asVharrier
p74
(lp75
g74
asVmerganser
p76
(lp77
g76
aVsheldrake
p78
asVcarnivore
p79
(lp80
g79
asVbillfish
p81
(lp82
g81
asVsalmonid
p83
(lp84
g83
asValmond
p85
(lp86
g85
asVlavender
p87
(lp88
g87
asVmillet
p89
(lp90
g89
asVpreacher
p91
(lp92
g91
asVaristocrat
p93
(lp94
g93
aVpatrician
p95
asVgrandparent
p96
(lp97
g96
asVsubordinate
p98
(lp99
g98
aVsubsidiary
p100
aVunderling
p101
asVcactus
p102
(lp103
g102
asVneonate
p104
(lp105
g104
aVnewborn
p106
asVsawfly
p107
(lp108
g107
asVjaeger
p109
(lp110
g109
asVscabious
p111
(lp112
g111
aVscabiosa
p113
asVcrotalaria
p114
(lp115
g114
asVinula
p116
(lp117
g116
asVsupplier
p118
(lp119
g118
aVprovider
p120
asVdipterocarp
p121
(lp122
g121
asVzamia
p123
(lp124
g123
asVspecialist
p125
(lp126
Vspecialist
p127
asVreporter
p128
(lp129
g128
aVnewsman
p130
asVherb
p131
(lp132
g131
asVhydrangea
p133
(lp134
g133
asVdory
p135
(lp136
g135
asVwanton
p137
(lp138
g137
asVkicker
p139
(lp140
g139
asVabbess
p141
(lp142
g141
aVprioress
p143
asVsorceress
p144
(lp145
g144
asVconnoisseur
p146
(lp147
g146
asVdaughter
p148
(lp149
g148
aVgirl
p150
asVsedum
p151
(lp152
g151
asVsettler
p153
(lp154
g153
aVcolonist
p155
asVmantis
p156
(lp157
g156
asVmentor
p158
(lp159
g158
asVlacewing
p160
(lp161
g160
asVchanger
p162
(lp163
g162
aVmodifier
p164
asVcurate
p165
(lp166
g165
aVminister
p167
aVparson
p168
aVpastor
p169
aVrector
p170
asVweevil
p171
(lp172
g171
asVavens
p173
(lp174
g173
asValligator
p175
(lp176
g175
aVgator
p177
asVprivet
p178
(lp179
g178
asVprospector
p180
(lp181
g180
asVbarnacle
p182
(lp183
g182
asVracketeer
p184
(lp185
g184
asVminstrel
p186
(lp187
g186
asVrorqual
p188
(lp189
g188
aVrazorback
p190
asVblueberry
p191
(lp192
g191
asVcalf
p193
(lp194
g193
asVhorsetail
p195
(lp196
g195
asVmeteorologist
p197
(lp198
g197
asVadult
p199
(lp200
g199
aVgrownup
p201
asVprotozoan
p202
(lp203
g202
asVmarsupial
p204
(lp205
g204
asVwaxwing
p206
(lp207
g206
asVbartender
p208
(lp209
g208
aVbarman
p210
aVbarkeep
p211
aVbarkeeper
p212
aVmixologist
p213
asVpeperomia
p214
(lp215
g214
asVfakir
p216
(lp217
g216
aVfaqir
p218
asVworm
p219
(lp220
g219
asVantifeminist
p221
(lp222
g221
asVtetrapod
p223
(lp224
g223
asVentertainer
p225
(lp226
g225
asVcaiman
p227
(lp228
g227
aVcayman
p229
asVspendthrift
p230
(lp231
g230
aVspender
p232
aVscattergood
p233
asVdracaena
p234
(lp235
g234
asVteller
p236
(lp237
g236
asVamphipod
p238
(lp239
g238
asVdolphin
p240
(lp241
g240
asVsurveyor
p242
(lp243
g242
asVsleeper
p244
(lp245
g244
asVquail
p246
(lp247
g246
asVpipit
p248
(lp249
g248
aVlark
p250
asVorganizer
p251
(lp252
g251
aVorganiser
p253
aVarranger
p254
asVwoodpecker
p255
(lp256
g255
aVpeckerwood
p257
aVpecker
p258
asVhog
p259
(lp260
g259
aVpig
p261
aVgrunter
p262
aVsquealer
p263
asVend
p264
(lp265
g264
asVvagrant
p266
(lp267
g266
aVdrifter
p268
aVfloater
p269
aVvagabond
p270
asVrhinoceros
p271
(lp272
g271
aVrhino
p273
asVgentian
p274
(lp275
g274
asVkrait
p276
(lp277
g276
asVdrummer
p278
(lp279
g278
asVhop
p280
(lp281
g280
aVhops
p282
asVancestor
p283
(lp284
g283
aVascendant
p285
aVascendent
p286
aVantecedent
p287
aVroot
p288
asVbonsai
p289
(lp290
g289
asVptarmigan
p291
(lp292
g291
asVmisfit
p293
(lp294
g293
asVpresident
p295
(lp296
Vpresident
p297
aVchairman
p298
aVchairwoman
p299
aVchair
p300
aVchairperson
p301
asVlesbian
p302
(lp303
g302
asVmastodon
p304
(lp305
g304
asVelapid
p306
(lp307
g306
asVgoosefoot
p308
(lp309
g308
asVwaitress
p310
(lp311
g310
asVcapitalist
p312
(lp313
g312
asVmeadowlark
p314
(lp315
g314
aVlark
p316
asVsalesperson
p317
(lp318
g317
asVinhabitant
p319
(lp320
g319
aVhabitant
p321
aVdweller
p322
aVdenizen
p323
asVbanksia
p324
(lp325
g324
asVbolete
p326
(lp327
g326
asVfetus
p328
(lp329
g328
aVfoetus
p330
asVrockrose
p331
(lp332
g331
asVclaimant
p333
(lp334
g333
asVmixed-blood
p335
(lp336
g335
asVgallinule
p337
(lp338
g337
aVswamphen
p339
asVmayor
p340
(lp341
g340
asVfir
p342
(lp343
g342
asVdestroyer
p344
(lp345
g344
aVwaster
p346
asVtheologian
p347
(lp348
g347
aVtheologist
p349
asVimp
p350
(lp351
g350
aVscamp
p352
aVmonkey
p353
aVrascal
p354
aVrapscallion
p355
aVscalawag
p356
asVphysicist
p357
(lp358
g357
asVfig
p359
(lp360
g359
asVsavory
p361
(lp362
g361
asVbugle
p363
(lp364
g363
asVcoffee
p365
(lp366
g365
asVworkhorse
p367
(lp368
g367
asVtourist
p369
(lp370
g369
aVtourer
p371
aVholidaymaker
p372
asVclingfish
p373
(lp374
g373
asVvegetable
p375
(lp376
g375
asVcaterpillar
p377
(lp378
g377
asVgiraffe
p379
(lp380
g379
asVsuitor
p381
(lp382
g381
aVsuer
p383
asVrepairman
p384
(lp385
g384
asVgodchild
p386
(lp387
g386
asVdraba
p388
(lp389
g388
asVprobiotic
p390
(lp391
g390
asVthyme
p392
(lp393
g392
asVlupine
p394
(lp395
g394
aVlupin
p396
asVneuroscientist
p397
(lp398
g397
asVschemer
p399
(lp400
g399
aVplotter
p401
asVallspice
p402
(lp403
g402
asVmahogany
p404
(lp405
g404
asVspider
p406
(lp407
g406
asVaide
p408
(lp409
g408
aVauxiliary
p410
asVdrinker
p411
(lp412
Vdrinker
p413
aVjuicer
p414
asVskink
p415
(lp416
g415
asVhackberry
p417
(lp418
g417
asVcollector
p419
(lp420
Vcollector
p421
aVgatherer
p422
aVaccumulator
p423
asVprotea
p424
(lp425
g424
asVtrumpeter
p426
(lp427
Vtrumpeter
p428
aVcornetist
p429
asVpsychic
p430
(lp431
g430
asVpauper
p432
(lp433
g432
asVamaranth
p434
(lp435
g434
asVreader
p436
(lp437
Vreader
p438
asVwasher
p439
(lp440
g439
asVsaxifrage
p441
(lp442
g441
aVbreakstone
p443
asVstrategist
p444
(lp445
g444
asVarchosaur
p446
(lp447
g446
asVwhiff
p448
(lp449
g448
asVpterosaur
p450
(lp451
g450
asVfugitive
p452
(lp453
g452
asVflatworm
p454
(lp455
g454
asVmistress
p456
(lp457
Vmistress
p458
asVmullet
p459
(lp460
Vmullet
p461
asVacrobat
p462
(lp463
g462
asVstringybark
p464
(lp465
g464
asVshipper
p466
(lp467
g466
asVequine
p468
(lp469
g468
asVparricide
p470
(lp471
g470
asVrefugee
p472
(lp473
g472
asVconversationalist
p474
(lp475
g474
aVschmoozer
p476
asVlouse
p477
(lp478
g477
asVsteward
p479
(lp480
Vsteward
p481
asVciliate
p482
(lp483
g482
asVprodigal
p484
(lp485
g484
aVprofligate
p486
asVarethusa
p487
(lp488
g487
asVailanthus
p489
(lp490
g489
asVshorebird
p491
(lp492
g491
asVshopper
p493
(lp494
g493
asVgazelle
p495
(lp496
g495
asVmountebank
p497
(lp498
g497
aVcharlatan
p499
asVwasp
p500
(lp501
g500
asVangelim
p502
(lp503
g502
asVlinden
p504
(lp505
g504
aVbasswood
p506
aVlime
p507
asVlettuce
p508
(lp509
g508
asVnavigator
p510
(lp511
Vnavigator
p512
asVpassionflower
p513
(lp514
g513
asVhood
p515
(lp516
g515
aVhoodlum
p517
aVgoon
p518
aVpunk
p519
aVthug
p520
aVtough
p521
aVtoughie
p522
asVconvolvulus
p523
(lp524
g523
asVhelvella
p525
(lp526
g525
asVrhododendron
p527
(lp528
g527
asVbetrothed
p529
(lp530
g529
asVbonito
p531
(lp532
g531
asVhistorian
p533
(lp534
g533
aVhistoriographer
p535
asVwaterbuck
p536
(lp537
g536
asVspadefoot
p538
(lp539
g538
asVmaster
p540
(lp541
Vmaster
p542
asVtom
p543
(lp544
g543
aVtomcat
p545
asVtunicate
p546
(lp547
g546
asVdefaulter
p548
(lp549
g548
aVdeadbeat
p550
asVescort
p551
(lp552
g551
asVsolicitor
p553
(lp554
Vsolicitor
p555
aVcanvasser
p556
asVcereal
p557
(lp558
g557
asVhazelnut
p559
(lp560
g559
aVhazel
p561
asVgambler
p562
(lp563
g562
asVagriculturist
p564
(lp565
g564
aVagriculturalist
p566
aVcultivator
p567
aVgrower
p568
aVraiser
p569
asVschnauzer
p570
(lp571
g570
asVchef
p572
(lp573
g572
asVgodwit
p574
(lp575
g574
asVcoward
p576
(lp577
g576
asVtree
p578
(lp579
g578
asVmonotreme
p580
(lp581
g580
asVkalmia
p582
(lp583
g582
asVlawgiver
p584
(lp585
g584
aVlawmaker
p586
asVbidder
p587
(lp588
g587
asVmink
p589
(lp590
g589
asVrevolutionist
p591
(lp592
g591
aVrevolutionary
p593
aVsubversive
p594
asVrunner
p595
(lp596
Vrunner
p597
asVginger
p598
(lp599
g598
asVloosestrife
p600
(lp601
Vloosestrife
p602
asVrat
p603
(lp604
g603
asVcomfrey
p605
(lp606
g605
asVmint
p607
(lp608
g607
asVray
p609
(lp610
g609
asVlaugher
p611
(lp612
g611
asVgoatfish
p613
(lp614
g613
asVtoadflax
p615
(lp616
g615
asVpandanus
p617
(lp618
g617
asVniece
p619
(lp620
g619
asVeducator
p621
(lp622
g621
aVpedagogue
p623
asVrider
p624
(lp625
g624
asVsensualist
p626
(lp627
g626
asVevangelist
p628
(lp629
g628
aVrevivalist
p630
asVheath
p631
(lp632
g631
asVsugarcane
p633
(lp634
g633
asVvisionary
p635
(lp636
Vvisionary
p637
asVaddict
p638
(lp639
Vaddict
p640
asVwatercress
p641
(lp642
g641
asVprostitute
p643
(lp644
g643
aVcocotte
p645
aVwhore
p646
aVharlot
p647
aVtart
p648
aVcyprian
p649
asVsinger
p650
(lp651
g650
aVvocalist
p652
asVclassicist
p653
(lp654
g653
asVprofessor
p655
(lp656
g655
aVprof
p657
asVdog
p658
(lp659
g658
asVdeacon
p660
(lp661
g660
asVaunt
p662
(lp663
g662
aVauntie
p664
aVaunty
p665
asVhawkmoth
p666
(lp667
g666
asVconsumer
p668
(lp669
g668
asVpope
p670
(lp671
g670
aVpontiff
p672
asVambassador
p673
(lp674
g673
aVembassador
p675
asVvisitor
p676
(lp677
g676
asVchewer
p678
(lp679
g678
asVqueen
p680
(lp681
Vqueen
p682
asVsage
p683
(lp684
Vsage
p685
aVsalvia
p686
asVfennel
p687
(lp688
g687
asVpardoner
p689
(lp690
g689
asVbryophyte
p691
(lp692
g691
asVcaper
p693
(lp694
g693
asVhawkweed
p695
(lp696
g695
asVitinerant
p697
(lp698
g697
aVgypsy
p699
aVgipsy
p700
asVlayman
p701
(lp702
g701
aVlayperson
p703
aVsecular
p704
asVcripple
p705
(lp706
g705
asVgeologist
p707
(lp708
g707
asVspitz
p709
(lp710
g709
asVrice
p711
(lp712
g711
asVpredecessor
p713
(lp714
g713
asVankylosaur
p715
(lp716
g715
aVankylosaurus
p717
asVsmut
p718
(lp719
g718
asVpolemonium
p720
(lp721
g720
asVborrower
p722
(lp723
g722
asVgreenling
p724
(lp725
g724
asVrodent
p726
(lp727
g726
asVbat
p728
(lp729
g728
asVeverlasting
p730
(lp731
g730
asVspokesperson
p732
(lp733
g732
aVinterpreter
p734
aVrepresentative
p735
aVvoice
p736
asVwhitefish
p737
(lp738
g737
asVhumanist
p739
(lp740
g739
asVpacifist
p741
(lp742
g741
asVlinguist
p743
(lp744
Vlinguist
p745
asVsecretary
p746
(lp747
Vsecretary
p748
asVobserver
p749
(lp750
g749
aVcommentator
p751
asVpinon
p752
(lp753
g752
aVpinyon
p754
asVsansevieria
p755
(lp756
g755
asVsturgeon
p757
(lp758
g757
asVnun
p759
(lp760
g759
asVbusinessperson
p761
(lp762
g761
aVbourgeois
p763
asVcattle
p764
(lp765
g764
aVcows
p766
aVkine
p767
aVoxen
p768
asVdepressive
p769
(lp770
g769
asVbunting
p771
(lp772
g771
asVasphodel
p773
(lp774
g773
asVfeline
p775
(lp776
g775
aVfelid
p777
asVgentleman
p778
(lp779
g778
asVcollectivist
p780
(lp781
g780
aVleftist
p782
aVleft-winger
p783
asVflagellate
p784
(lp785
g784
asVbaboon
p786
(lp787
g786
asVpirate
p788
(lp789
g788
aVbuccaneer
p790
asVwarrior
p791
(lp792
g791
asVneedlefish
p793
(lp794
g793
aVgar
p795
aVbillfish
p796
asVjasmine
p797
(lp798
g797
asVarum
p799
(lp800
g799
asVtermite
p801
(lp802
g801
asVprizefighter
p803
(lp804
g803
aVgladiator
p805
asVenthusiast
p806
(lp807
g806
aVpartisan
p808
aVpartizan
p809
asVhoneysuckle
p810
(lp811
g810
asVroller
p812
(lp813
g812
asVhuckleberry
p814
(lp815
g814
asVplanner
p816
(lp817
g816
asVcow
p818
(lp819
g818
asVconch
p820
(lp821
g820
asVadventurer
p822
(lp823
g822
aVventurer
p824
asVtupelo
p825
(lp826
g825
asVpuffin
p827
(lp828
g827
asVcod
p829
(lp830
g829
aVcodfish
p831
asVcherry
p832
(lp833
g832
asVnanny
p834
(lp835
g834
aVnursemaid
p836
aVnurse
p837
asVforam
p838
(lp839
g838
asVdogwood
p840
(lp841
g840
aVcornel
p842
asVgopher
p843
(lp844
g843
asVnonconformist
p845
(lp846
g845
aVrecusant
p847
asVgodparent
p848
(lp849
g848
asVstarling
p850
(lp851
g850
asVlitigant
p852
(lp853
g852
aVlitigator
p854
asVcopycat
p855
(lp856
g855
aVimitator
p857
aVemulator
p858
aVape
p859
aVaper
p860
asVroofer
p861
(lp862
g861
asVbeef
p863
(lp864
g863
asVparsley
p865
(lp866
g865
asVhominoid
p867
(lp868
g867
asVbeneficiary
p869
(lp870
g869
aVdonee
p871
asVchrysanthemum
p872
(lp873
g872
asVbeet
p874
(lp875
g874
asVportulaca
p876
(lp877
g876
asVprogenitor
p878
(lp879
g878
asVbasil
p880
(lp881
g880
asVincompetent
p882
(lp883
g882
asVidol
p884
(lp885
g884
asVmushroom
p886
(lp887
g886
asVworker
p888
(lp889
Vworker
p890
asVattacker
p891
(lp892
g891
aVaggressor
p893
aVassailant
p894
asVphlox
p895
(lp896
g895
asVchild
p897
(lp898
Vchild
p899
aVkid
p900
asVsnipe
p901
(lp902
g901
asVplacental
p903
(lp904
g903
aVeutherian
p905
asVwildcat
p906
(lp907
g906
asVannelid
p908
(lp909
g908
asVtarsier
p910
(lp911
g910
asVkingfisher
p912
(lp913
g912
asVwarbler
p914
(lp915
g914
asVlizard
p916
(lp917
g916
asVfrangipani
p918
(lp919
g918
asVbotfly
p920
(lp921
g920
asVcomedian
p922
(lp923
Vcomedian
p924
aVcomic
p925
asVveronica
p926
(lp927
g926
aVspeedwell
p928
asVmugwort
p929
(lp930
g929
asVplover
p931
(lp932
g931
asVseparatist
p933
(lp934
g933
asVplayer
p935
(lp936
g935
aVparticipant
p937
asVexile
p938
(lp939
g938
aVexpatriate
p940
aVexpat
p941
asVmouse
p942
(lp943
g942
asVmako
p944
(lp945
g944
asVspiderwort
p946
(lp947
g946
aVdayflower
p948
asVcamellia
p949
(lp950
g949
aVcamelia
p951
asVunfortunate
p952
(lp953
g952
asVplater
p954
(lp955
g954
asVpolypore
p956
(lp957
g956
asVmarcher
p958
(lp959
g958
aVparader
p960
asVwarder
p961
(lp962
g961
asVrail
p963
(lp964
g963
asVtenrec
p965
(lp966
g965
asVkin
p967
(lp968
g967
aVfamily
p969
asVtuna
p970
(lp971
g970
aVtunny
p972
asVemissary
p973
(lp974
g973
aVenvoy
p975
asVgloxinia
p976
(lp977
g976
asVguenon
p978
(lp979
g978
asVsmoker
p980
(lp981
g980
asVclimber
p982
(lp983
Vclimber
p984
asVmother
p985
(lp986
g985
asVsenna
p987
(lp988
g987
asVmacaque
p989
(lp990
g989
asVgigolo
p991
(lp992
g991
asVindigo
p993
(lp994
g993
asVkale
p995
(lp996
g995
aVkail
p997
aVcole
p998
asVchickweed
p999
(lp1000
g999
asVproposer
p1001
(lp1002
g1001
aVmover
p1003
asVgrader
p1004
(lp1005
g1004
asVvictim
p1006
(lp1007
Vvictim
p1008
aVdupe
p1009
asVyew
p1010
(lp1011
g1010
asVinsectivore
p1012
(lp1013
g1012
asVlineman
p1014
(lp1015
g1014
asVsunflower
p1016
(lp1017
g1016
aVhelianthus
p1018
asVelm
p1019
(lp1020
g1019
asVphotographer
p1021
(lp1022
g1021
aVlensman
p1023
asVwright
p1024
(lp1025
g1024
asVkelp
p1026
(lp1027
g1026
asVinnocent
p1028
(lp1029
g1028
asVcontestant
p1030
(lp1031
g1030
asValthea
p1032
(lp1033
g1032
aValthaea
p1034
aVhollyhock
p1035
asVvulture
p1036
(lp1037
g1036
asVchorister
p1038
(lp1039
g1038
asVboxer
p1040
(lp1041
g1040
aVpugilist
p1042
asVsoapberry
p1043
(lp1044
g1043
asVjudge
p1045
(lp1046
g1045
aVjustice
p1047
aVjurist
p1048
asVpartridge
p1049
(lp1050
g1049
asVtarpon
p1051
(lp1052
g1051
asVscavenger
p1053
(lp1054
g1053
asVinsurgent
p1055
(lp1056
g1055
aVinsurrectionist
p1057
aVrebel
p1058
asVlily
p1059
(lp1060
g1059
asVnude
p1061
(lp1062
g1061
asVpanelist
p1063
(lp1064
g1063
aVpanellist
p1065
asVbroadcaster
p1066
(lp1067
g1066
asVmosquito
p1068
(lp1069
g1068
asVbutterfly
p1070
(lp1071
g1070
asVhonoree
p1072
(lp1073
g1072
asVorchis
p1074
(lp1075
g1074
asVtrainee
p1076
(lp1077
g1076
asVsponge
p1078
(lp1079
g1078
asVusher
p1080
(lp1081
g1080
aVguide
p1082
asVfiduciary
p1083
(lp1084
g1083
asVbore
p1085
(lp1086
g1085
aVdullard
p1087
asVpachysandra
p1088
(lp1089
g1088
asVwoodcock
p1090
(lp1091
g1090
asVflavivirus
p1092
(lp1093
g1092
asVosier
p1094
(lp1095
g1094
asVfox
p1096
(lp1097
g1096
asVhelmsman
p1098
(lp1099
g1098
aVsteersman
p1100
aVsteerer
p1101
asVfoe
p1102
(lp1103
g1102
aVenemy
p1104
asVconvict
p1105
(lp1106
Vconvict
p1107
aVcon
p1108
aVinmate
p1109
aVyardbird
p1110
asVofficer
p1111
(lp1112
g1111
asVsquirrelfish
p1113
(lp1114
g1113
asVstatistician
p1115
(lp1116
g1115
aVactuary
p1117
asVnewcomer
p1118
(lp1119
Vnewcomer
p1120
aVfledgling
p1121
aVfledgeling
p1122
aVstarter
p1123
aVneophyte
p1124
aVfreshman
p1125
aVnewbie
p1126
aVentrant
p1127
asVpeer
p1128
(lp1129
Vpeer
p1130
aVequal
p1131
aVmatch
p1132
asVdiagnostician
p1133
(lp1134
g1133
aVpathologist
p1135
asVdalmatian
p1136
(lp1137
g1136
asVherpes
p1138
(lp1139
g1138
asVdiner
p1140
(lp1141
g1140
asVcowboy
p1142
(lp1143
g1142
aVpuncher
p1144
aVcowman
p1145
aVcattleman
p1146
aVcowpoke
p1147
aVcowhand
p1148
aVcowherd
p1149
asVeavesdropper
p1150
(lp1151
g1150
asVascidian
p1152
(lp1153
g1152
asVcoral
p1154
(lp1155
g1154
asVsycophant
p1156
(lp1157
g1156
aVtoady
p1158
aVcrawler
p1159
aVlackey
p1160
asVtownsman
p1161
(lp1162
g1161
aVtowner
p1163
asVcraftsman
p1164
(lp1165
g1164
aVartisan
p1166
aVjourneyman
p1167
aVartificer
p1168
asVcrinoid
p1169
(lp1170
g1169
asValga
p1171
(lp1172
g1171
aValgae
p1173
asVmarshal
p1174
(lp1175
Vmarshal
p1176
aVmarshall
p1177
asVmeerkat
p1178
(lp1179
g1178
asVlamprey
p1180
(lp1181
g1180
asVprimitive
p1182
(lp1183
g1182
asVrespondent
p1184
(lp1185
g1184
aVresponder
p1186
asVhornbeam
p1187
(lp1188
g1187
asVcamas
p1189
(lp1190
g1189
asVrockfish
p1191
(lp1192
g1191
asVintellectual
p1193
(lp1194
g1193
aVintellect
p1195
asVson
p1196
(lp1197
g1196
aVboy
p1198
asVstockholder
p1199
(lp1200
g1199
aVshareholder
p1201
aVshareowner
p1202
asVmamba
p1203
(lp1204
g1203
asVoilman
p1205
(lp1206
Voilman
p1207
asVsculpin
p1208
(lp1209
g1208
asVornamental
p1210
(lp1211
g1210
asVforeperson
p1212
(lp1213
g1212
asVfuchsia
p1214
(lp1215
g1214
asVsovereign
p1216
(lp1217
g1216
aVmonarch
p1218
asVseeker
p1219
(lp1220
g1219
aVsearcher
p1221
aVquester
p1222
asVeditor
p1223
(lp1224
g1223
asVthrips
p1225
(lp1226
g1225
asVmarauder
p1227
(lp1228
g1227
aVpredator
p1229
aVvulture
p1230
aVpiranha
p1231
asVhead
p1232
(lp1233
Vhead
p1234
aVchief
p1235
asVmarten
p1236
(lp1237
g1236
asVamateur
p1238
(lp1239
Vamateur
p1240
asVratite
p1241
(lp1242
g1241
asVeater
p1243
(lp1244
g1243
aVfeeder
p1245
asVfailure
p1246
(lp1247
g1246
aVloser
p1248
aVnonstarter
p1249
asVuncle
p1250
(lp1251
g1250
asVdecoder
p1252
(lp1253
g1252
asVbeech
p1254
(lp1255
g1254
asVanalyst
p1256
(lp1257
Vanalyst
p1258
asVotter
p1259
(lp1260
g1259
asVconcubine
p1261
(lp1262
g1261
aVcourtesan
p1263
aVdoxy
p1264
aVparamour
p1265
asVcentipede
p1266
(lp1267
g1266
asVveterinarian
p1268
(lp1269
g1268
aVveterinary
p1270
aVvet
p1271
asVpalm
p1272
(lp1273
g1272
asVpassenger
p1274
(lp1275
g1274
aVrider
p1276
asVjuvenile
p1277
(lp1278
g1277
asVliberal
p1279
(lp1280
g1279
aVliberalist
p1281
aVprogressive
p1282
asVwolfhound
p1283
(lp1284
g1283
asVluffa
p1285
(lp1286
g1285
asVcobbler
p1287
(lp1288
g1287
aVshoemaker
p1289
asVmarksman
p1290
(lp1291
g1290
aVsharpshooter
p1292
asVprayer
p1293
(lp1294
g1293
aVsupplicant
p1295
asVcacao
p1296
(lp1297
g1296
asVshiner
p1298
(lp1299
g1298
asVmold
p1300
(lp1301
g1300
aVmould
p1302
asVdealer
p1303
(lp1304
g1303
asVornithischian
p1305
(lp1306
g1305
asVshigella
p1307
(lp1308
g1307
asVsmelt
p1309
(lp1310
g1309
asVmolester
p1311
(lp1312
g1311
asVactor
p1313
(lp1314
Vactor
p1315
aVplayer
p1316
aVthespian
p1317
asVcomposite
p1318
(lp1319
g1318
asVentomologist
p1320
(lp1321
g1320
asVholly
p1322
(lp1323
g1322
asVorchid
p1324
(lp1325
g1324
asVsurfperch
p1326
(lp1327
g1326
asVcleric
p1328
(lp1329
g1328
aVchurchman
p1330
aVdivine
p1331
aVecclesiastic
p1332
asVmariner
p1333
(lp1334
g1333
aVseaman
p1335
aVtar
p1336
aVseafarer
p1337
aVgob
p1338
asVgeneticist
p1339
(lp1340
g1339
asVanatomist
p1341
(lp1342
g1341
asVpublican
p1343
(lp1344
g1343
asVbarracuda
p1345
(lp1346
g1345
asVsaxophonist
p1347
(lp1348
g1347
asVcaraway
p1349
(lp1350
g1349
asVgorilla
p1351
(lp1352
g1351
asVmealybug
p1353
(lp1354
g1353
asVcoach
p1355
(lp1356
Vcoach
p1357
aVmanager
p1358
aVhandler
p1359
asVrod
p1360
(lp1361
g1360
asVnymphalid
p1362
(lp1363
g1362
asVcrocodile
p1364
(lp1365
g1364
asVpachyderm
p1366
(lp1367
g1366
asVskate
p1368
(lp1369
g1368
asVmicrobiologist
p1370
(lp1371
g1370
asVkatydid
p1372
(lp1373
g1372
asVproletarian
p1374
(lp1375
g1374
aVprole
p1376
aVworker
p1377
asVpeccary
p1378
(lp1379
g1378
asVfancier
p1380
(lp1381
g1380
aVenthusiast
p1382
asVfather
p1383
(lp1384
g1383
asVmanicurist
p1385
(lp1386
g1385
asVmallee
p1387
(lp1388
g1387
asVmelon
p1389
(lp1390
g1389
asVidealist
p1391
(lp1392
g1391
aVdreamer
p1393
asVzinnia
p1394
(lp1395
g1394
asVadviser
p1396
(lp1397
g1396
aVadvisor
p1398
aVconsultant
p1399
asVjerk
p1400
(lp1401
g1400
aVdork
p1402
asVcoot
p1403
(lp1404
g1403
asVameba
p1405
(lp1406
g1405
aVamoeba
p1407
asVoldster
p1408
(lp1409
g1408
asVstingray
p1410
(lp1411
g1410
asVcook
p1412
(lp1413
g1412
asVwillowherb
p1414
(lp1415
g1414
asVironworker
p1416
(lp1417
g1416
asVpoliceman
p1418
(lp1419
g1418
aVofficer
p1420
asVtopminnow
p1421
(lp1422
g1421
asVbrother
p1423
(lp1424
Vbrother
p1425
asVpea
p1426
(lp1427
g1426
asVcrustacean
p1428
(lp1429
g1428
asVperceiver
p1430
(lp1431
g1430
aVobserver
p1432
aVbeholder
p1433
asVteal
p1434
(lp1435
g1434
asVguy
p1436
(lp1437
g1436
aVcat
p1438
aVhombre
p1439
aVbozo
p1440
asVwoodworker
p1441
(lp1442
g1441
aVwoodsman
p1443
aVwoodman
p1444
asVspoonbill
p1445
(lp1446
g1445
asVthinker
p1447
(lp1448
g1447
asVcurrant
p1449
(lp1450
g1449
asVmonarda
p1451
(lp1452
g1451
asVbacteria
p1453
(lp1454
g1453
aVbacterium
p1455
asVsubstitute
p1456
(lp1457
g1456
aVreserve
p1458
asVbovid
p1459
(lp1460
g1459
asVtheist
p1461
(lp1462
g1461
asVsuspect
p1463
(lp1464
g1463
asVtormentor
p1465
(lp1466
g1465
aVtormenter
p1467
aVpersecutor
p1468
asVhumorist
p1469
(lp1470
g1469
aVhumourist
p1471
asVcorn
p1472
(lp1473
g1472
aVmaize
p1474
asVtitmouse
p1475
(lp1476
g1475
aVtit
p1477
asVstreptomyces
p1478
(lp1479
g1478
asVdwarf
p1480
(lp1481
g1480
aVmidget
p1482
aVnanus
p1483
asVclerk
p1484
(lp1485
g1484
asVstallion
p1486
(lp1487
g1486
aVentire
p1488
asVfluke
p1489
(lp1490
g1489
aVtrematode
p1491
asVgoldfish
p1492
(lp1493
g1492
asVvictimizer
p1494
(lp1495
g1494
asVteacher
p1496
(lp1497
g1496
aVinstructor
p1498
asValto
p1499
(lp1500
g1499
asVbuck
p1501
(lp1502
g1501
asVdescender
p1503
(lp1504
g1503
asVcuckoo
p1505
(lp1506
g1505
asVthrasher
p1507
(lp1508
g1507
asVprecursor
p1509
(lp1510
g1509
aVforerunner
p1511
asVpetitioner
p1512
(lp1513
g1512
aVsupplicant
p1514
aVrequester
p1515
asVcorynebacterium
p1516
(lp1517
g1516
asVlorikeet
p1518
(lp1519
g1518
asVraccoon
p1520
(lp1521
g1520
aVracoon
p1522
asVboa
p1523
(lp1524
g1523
asVretiree
p1525
(lp1526
g1525
asVagaric
p1527
(lp1528
g1527
asVeriogonum
p1529
(lp1530
g1529
asVkeeper
p1531
(lp1532
g1531
asVpony
p1533
(lp1534
Vpony
p1535
asVrosewood
p1536
(lp1537
g1536
asVsedge
p1538
(lp1539
g1538
asVlungfish
p1540
(lp1541
g1540
asVprosecutor
p1542
(lp1543
g1542
asVcommissioner
p1544
(lp1545
g1544
asVconductor
p1546
(lp1547
Vconductor
p1548
asVskua
p1549
(lp1550
g1549
asVacademician
p1551
(lp1552
g1551
aVacademic
p1553
asVemployee
p1554
(lp1555
g1554
asVcarissa
p1556
(lp1557
g1556
asVofficeholder
p1558
(lp1559
g1558
aVofficer
p1560
asVorator
p1561
(lp1562
g1561
aVspeechmaker
p1563
aVrhetorician
p1564
asVpetrel
p1565
(lp1566
g1565
asVfly
p1567
(lp1568
g1567
asVtowhee
p1569
(lp1570
g1569
asVbeliever
p1571
(lp1572
Vbeliever
p1573
aVworshiper
p1574
aVworshipper
p1575
asVcat
p1576
(lp1577
g1576
asVflunky
p1578
(lp1579
g1578
aVstooge
p1580
asVwheatgrass
p1581
(lp1582
g1581
asVbiter
p1583
(lp1584
g1583
asVcad
p1585
(lp1586
g1585
aVbounder
p1587
aVblackguard
p1588
aVdog
p1589
aVhound
p1590
aVheel
p1591
asVspy
p1592
(lp1593
Vspy
p1594
asVperformer
p1595
(lp1596
g1595
asVviceroy
p1597
(lp1598
g1597
aVvicereine
p1599
asVbullhead
p1600
(lp1601
g1600
asVagent
p1602
(lp1603
Vagent
p1604
asVgymnosperm
p1605
(lp1606
g1605
asVcritic
p1607
(lp1608
Vcritic
p1609
asVanteater
p1610
(lp1611
g1610
asVadmirer
p1612
(lp1613
Vadmirer
p1614
asVreed
p1615
(lp1616
g1615
asVpink
p1617
(lp1618
g1617
asVbigot
p1619
(lp1620
g1619
asVmole
p1621
(lp1622
g1621
asVwrasse
p1623
(lp1624
g1623
asVbittern
p1625
(lp1626
g1625
asVpine
p1627
(lp1628
g1627
asVsnapdragon
p1629
(lp1630
g1629
asVimmune
p1631
(lp1632
g1631
asVagave
p1633
(lp1634
g1633
asVcardinal
p1635
(lp1636
g1635
asVskater
p1637
(lp1638
g1637
asVelephant
p1639
(lp1640
g1639
asVmaestro
p1641
(lp1642
g1641
aVmaster
p1643
asVcoonhound
p1644
(lp1645
g1644
asVbanker
p1646
(lp1647
g1646
asVhedonist
p1648
(lp1649
g1648
aVpagan
p1650
asVcoucal
p1651
(lp1652
g1651
asVmeddler
p1653
(lp1654
g1653
asVexplorer
p1655
(lp1656
g1655
aVadventurer
p1657
asVfascist
p1658
(lp1659
g1658
asVaccessory
p1660
(lp1661
g1660
asVexhibitionist
p1662
(lp1663
Vexhibitionist
p1664
aVshow-off
p1665
asVdate
p1666
(lp1667
g1666
aVescort
p1668
asVruminant
p1669
(lp1670
g1669
asVdove
p1671
(lp1672
g1671
asVaviator
p1673
(lp1674
g1673
aVaeronaut
p1675
aVairman
p1676
aVflier
p1677
aVflyer
p1678
asVjellyfish
p1679
(lp1680
g1679
asVseabird
p1681
(lp1682
g1681
asVhemlock
p1683
(lp1684
g1683
asVpuller
p1685
(lp1686
g1685
asVapplicant
p1687
(lp1688
g1687
asVsorghum
p1689
(lp1690
g1689
asVclover
p1691
(lp1692
g1691
aVtrefoil
p1693
asVsailfish
p1694
(lp1695
g1694
asVstilt
p1696
(lp1697
Vstilt
p1698
aVlonglegs
p1699
asVarcheologist
p1700
(lp1701
g1700
aVarchaeologist
p1702
asVrabbi
p1703
(lp1704
g1703
asVcolt
p1705
(lp1706
g1705
asVmoralist
p1707
(lp1708
g1707
asVcanary
p1709
(lp1710
g1709
asVfarmhand
p1711
(lp1712
g1711
asVbobwhite
p1713
(lp1714
g1713
aVpartridge
p1715
asVpointer
p1716
(lp1717
g1716
asVsunfish
p1718
(lp1719
g1718
asVmachine
p1720
(lp1721
g1720
asVephedra
p1722
(lp1723
g1722
asVoverlord
p1724
(lp1725
g1724
aVmaster
p1726
aVlord
p1727
asVmonitor
p1728
(lp1729
g1728
aVvaran
p1730
asVwillow
p1731
(lp1732
g1731
asVcinchona
p1733
(lp1734
g1733
asVchickadee
p1735
(lp1736
g1735
asVmaid
p1737
(lp1738
Vmaid
p1739
aVmaidservant
p1740
aVhousemaid
p1741
aVamah
p1742
asVfarmer
p1743
(lp1744
g1743
aVhusbandman
p1745
aVgranger
p1746
asVcranesbill
p1747
(lp1748
g1747
asVcutter
p1749
(lp1750
g1749
asVnuthatch
p1751
(lp1752
g1751
aVnutcracker
p1753
asVgyromitra
p1754
(lp1755
g1754
asVtulip
p1756
(lp1757
g1756
asVfern
p1758
(lp1759
g1758
asVceratopsian
p1760
(lp1761
g1760
asVtern
p1762
(lp1763
g1762
asVhickory
p1764
(lp1765
g1764
asVrealist
p1766
(lp1767
Vrealist
p1768
asVservant
p1769
(lp1770
g1769
aVretainer
p1771
asVlegume
p1772
(lp1773
g1772
asVpeasant
p1774
(lp1775
Vpeasant
p1776
asVfisherman
p1777
(lp1778
g1777
aVfisher
p1779
asVturtle
p1780
(lp1781
g1780
asVnematode
p1782
(lp1783
g1782
aVroundworm
p1784
asVgrouse
p1785
(lp1786
g1785
asVbovine
p1787
(lp1788
g1787
asVgoose
p1789
(lp1790
g1789
asVzebra
p1791
(lp1792
g1791
asVbeetle
p1793
(lp1794
g1793
asVdistributor
p1795
(lp1796
g1795
asVgirl
p1797
(lp1798
g1797
aVmiss
p1799
aVmissy
p1800
aVfille
p1801
asVmyrtle
p1802
(lp1803
g1802
asVchokecherry
p1804
(lp1805
g1804
asVvibrio
p1806
(lp1807
g1806
asVcopepod
p1808
(lp1809
g1808
asVstupid
p1810
(lp1811
g1810
aVdullard
p1812
aVdolt
p1813
asVworshiper
p1814
(lp1815
g1814
aVworshipper
p1816
asVsongster
p1817
(lp1818
g1817
asVscaup
p1819
(lp1820
g1819
aVbroadbill
p1821
asVreveler
p1822
(lp1823
g1822
aVreveller
p1824
asVeagle
p1825
(lp1826
g1825
asVmonster
p1827
(lp1828
g1827
aVfiend
p1829
aVdevil
p1830
aVdemon
p1831
aVogre
p1832
asVhairdresser
p1833
(lp1834
g1833
aVhairstylist
p1835
aVstylist
p1836
aVstyler
p1837
asVcarp
p1838
(lp1839
g1838
asVboxfish
p1840
(lp1841
g1840
asVgrandma
p1842
(lp1843
g1842
aVgrandmother
p1844
aVgranny
p1845
aVgran
p1846
aVnan
p1847
aVnanna
p1848
asVdispatcher
p1849
(lp1850
g1849
asVtitanosaur
p1851
(lp1852
g1851
aVtitanosaurian
p1853
asVwaiter
p1854
(lp1855
Vwaiter
p1856
aVserver
p1857
asVbarrister
p1858
(lp1859
g1858
asVinitiate
p1860
(lp1861
g1860
aVpundit
p1862
aVsavant
p1863
asVregistrar
p1864
(lp1865
g1864
aVrecorder
p1866
asVswine
p1867
(lp1868
g1867
asVblacksmith
p1869
(lp1870
g1869
asVweakling
p1871
(lp1872
g1871
aVdoormat
p1873
aVwuss
p1874
asVcassava
p1875
(lp1876
g1875
asVpelican
p1877
(lp1878
g1877
asVmoneymaker
p1879
(lp1880
g1879
asVconifer
p1881
(lp1882
g1881
asVtipster
p1883
(lp1884
g1883
aVtout
p1885
asVsheldrake
p1886
(lp1887
g1886
asVengineer
p1888
(lp1889
g1888
aVtechnologist
p1890
asVsheep
p1891
(lp1892
g1891
asVpeddler
p1893
(lp1894
g1893
aVpedlar
p1895
aVpackman
p1896
aVhawker
p1897
aVpitchman
p1898
asVgrackle
p1899
(lp1900
g1899
asVnigella
p1901
(lp1902
g1901
asVpsychotic
p1903
(lp1904
g1903
aVpsycho
p1905
asVchecker
p1906
(lp1907
g1906
asVwildflower
p1908
(lp1909
g1908
asVsilene
p1910
(lp1911
g1910
aVcampion
p1912
aVcatchfly
p1913
asVchimaera
p1914
(lp1915
g1914
asVdinoflagellate
p1916
(lp1917
g1916
asVcalendula
p1918
(lp1919
g1918
asVblastula
p1920
(lp1921
g1920
asVfriend
p1922
(lp1923
g1922
asVscalper
p1924
(lp1925
g1924
asVamaryllis
p1926
(lp1927
g1926
asVpompano
p1928
(lp1929
g1928
asVmassager
p1930
(lp1931
g1930
asVadelgid
p1932
(lp1933
g1932
asVseducer
p1934
(lp1935
Vseducer
p1936
asVbutt
p1937
(lp1938
g1937
aVgoat
p1939
aVlaughingstock
p1940
aVstooge
p1941
asVgrunt
p1942
(lp1943
g1942
asVholder
p1944
(lp1945
g1944
asVinventor
p1946
(lp1947
g1946
aVdiscoverer
p1948
aVartificer
p1949
asVremora
p1950
(lp1951
g1950
asVrival
p1952
(lp1953
g1952
aVchallenger
p1954
aVcompetitor
p1955
aVcompetition
p1956
aVcontender
p1957
asVrecruit
p1958
(lp1959
g1958
asVcockle
p1960
(lp1961
g1960
asVserf
p1962
(lp1963
g1962
aVhelot
p1964
aVvillein
p1965
asVoptimist
p1966
(lp1967
g1966
asVgoby
p1968
(lp1969
g1968
aVgudgeon
p1970
asVcounselor
p1971
(lp1972
g1971
aVcounsellor
p1973
asVprintmaker
p1974
(lp1975
g1974
asVhoneycreeper
p1976
(lp1977
Vhoneycreeper
p1978
asVgeophysicist
p1979
(lp1980
g1979
asVsupremacist
p1981
(lp1982
g1981
asVhearer
p1983
(lp1984
g1983
aVlistener
p1985
aVauditor
p1986
aVattender
p1987
asVgreyhound
p1988
(lp1989
g1988
asVant
p1990
(lp1991
g1990
aVemmet
p1992
asVtaster
p1993
(lp1994
g1993
aVsampler
p1995
asVarachnid
p1996
(lp1997
g1996
aVarachnoid
p1998
asVmesquite
p1999
(lp2000
g1999
asVfinancier
p2001
(lp2002
g2001
aVmoneyman
p2003
asVwoad
p2004
(lp2005
g2004
asVwanderer
p2006
(lp2007
g2006
aVroamer
p2008
aVrover
p2009
asVdaredevil
p2010
(lp2011
g2010
aVmadcap
p2012
aVhothead
p2013
aVswashbuckler
p2014
aVlunatic
p2015
asVveteran
p2016
(lp2017
g2016
aVvet
p2018
aVex-serviceman
p2019
asVforeigner
p2020
(lp2021
g2020
aVoutsider
p2022
asVantbird
p2023
(lp2024
g2023
asVideal
p2025
(lp2026
g2025
aVparagon
p2027
aVnonpareil
p2028
aVsaint
p2029
aVapotheosis
p2030
aVnonesuch
p2031
aVnonsuch
p2032
asVparaprofessional
p2033
(lp2034
g2033
asVbrodiaea
p2035
(lp2036
g2035
asVhairstreak
p2037
(lp2038
g2037
asVnaysayer
p2039
(lp2040
g2039
asVpostmaster
p2041
(lp2042
g2041
asVprinter
p2043
(lp2044
g2043
aVpressman
p2045
asVmountaineer
p2046
(lp2047
g2046
asVinvertebrate
p2048
(lp2049
g2048
asVflatterer
p2050
(lp2051
g2050
asVmyna
p2052
(lp2053
g2052
aVmynah
p2054
aVmina
p2055
aVminah
p2056
asVevaluator
p2057
(lp2058
g2057
aVjudge
p2059
asVescherichia
p2060
(lp2061
g2060
asVyellowthroat
p2062
(lp2063
g2062
asVmulberry
p2064
(lp2065
g2064
asVbustard
p2066
(lp2067
g2066
asVslaver
p2068
(lp2069
g2068
asVsallow
p2070
(lp2071
g2070
asVprofessional
p2072
(lp2073
Vprofessional
p2074
aVpro
p2075
asVpolychaete
p2076
(lp2077
g2076
asVpartisan
p2078
(lp2079
g2078
aVzealot
p2080
asVlocoweed
p2081
(lp2082
g2081
asVdetective
p2083
(lp2084
Vdetective
p2085
aVinvestigator
p2086
aVtec
p2087
asVperch
p2088
(lp2089
g2088
asVcobra
p2090
(lp2091
g2090
asVshot
p2092
(lp2093
g2092
aVshooter
p2094
asVopportunist
p2095
(lp2096
g2095
asVcurlew
p2097
(lp2098
g2097
asVmoderator
p2099
(lp2100
g2099
asVpalmetto
p2101
(lp2102
g2101
asVpropagandist
p2103
(lp2104
g2103
asVtherapist
p2105
(lp2106
g2105
aVhealer
p2107
asVmilkwort
p2108
(lp2109
g2108
asVdemonstrator
p2110
(lp2111
g2110
aVprotester
p2112
asVhack
p2113
(lp2114
g2113
aVdrudge
p2115
aVhacker
p2116
asVtoadfish
p2117
(lp2118
g2117
asVhustler
p2119
(lp2120
g2119
aVoperator
p2121
asVgnat
p2122
(lp2123
g2122
asVgenius
p2124
(lp2125
g2124
aVmastermind
p2126
aVbrain
p2127
aVbrainiac
p2128
asVgourd
p2129
(lp2130
g2129
asVcordgrass
p2131
(lp2132
g2131
asVgull
p2133
(lp2134
g2133
aVseagull
p2135
asVarthropod
p2136
(lp2137
g2136
asVslob
p2138
(lp2139
g2138
aVpig
p2140
asVmalcontent
p2141
(lp2142
g2141
asVentrant
p2143
(lp2144
g2143
asVpsychiatrist
p2145
(lp2146
g2145
aVshrink
p2147
asVassistant
p2148
(lp2149
g2148
aVhelper
p2150
aVhelp
p2151
aVsupporter
p2152
asVpatriot
p2153
(lp2154
g2153
aVnationalist
p2155
asVhoya
p2156
(lp2157
g2156
asVtailor
p2158
(lp2159
g2158
aVsartor
p2160
asVarbutus
p2161
(lp2162
g2161
asVwarhorse
p2163
(lp2164
g2163
asVpimp
p2165
(lp2166
g2165
aVprocurer
p2167
aVpanderer
p2168
aVpander
p2169
aVponce
p2170
asVartist
p2171
(lp2172
g2171
asVbusinesswoman
p2173
(lp2174
g2173
asVworkman
p2175
(lp2176
g2175
aVworkingman
p2177
asVspurge
p2178
(lp2179
g2178
asVsoloist
p2180
(lp2181
g2180
asVmiler
p2182
(lp2183
g2182
asVpriest
p2184
(lp2185
Vpriest
p2186
asVbison
p2187
(lp2188
g2187
asVlandlord
p2189
(lp2190
g2189
asVhusband
p2191
(lp2192
g2191
aVhubby
p2193
asVimposter
p2194
(lp2195
g2194
aVimpostor
p2196
aVpretender
p2197
aVfake
p2198
aVfaker
p2199
aVfraud
p2200
aVsham
p2201
aVpseudo
p2202
asVbox
p2203
(lp2204
g2203
aVboxwood
p2205
asVrelative
p2206
(lp2207
g2206
aVrelation
p2208
asVgangster
p2209
(lp2210
g2209
aVmobster
p2211
asVsaurischian
p2212
(lp2213
g2212
asVseal
p2214
(lp2215
g2214
asVdiver
p2216
(lp2217
g2216
aVfrogman
p2218
asVdervish
p2219
(lp2220
g2219
asVcodefendant
p2221
(lp2222
g2221
aVco-defendant
p2223
asVbasidiomycete
p2224
(lp2225
g2224
asVarchaebacteria
p2226
(lp2227
g2226
asVscilla
p2228
(lp2229
g2228
aVsquill
p2230
asVmandarin
p2231
(lp2232
g2231
asVpest
p2233
(lp2234
Vpest
p2235
aVcuss
p2236
aVgadfly
p2237
asVjumper
p2238
(lp2239
Vjumper
p2240
asVarrival
p2241
(lp2242
g2241
aVcomer
p2243
asVphalarope
p2244
(lp2245
g2244
asVparent
p2246
(lp2247
g2246
asVmucuna
p2248
(lp2249
g2248
asVsignaler
p2250
(lp2251
g2250
aVsignaller
p2252
asVsalesgirl
p2253
(lp2254
g2253
aVsaleswoman
p2255
aVsaleslady
p2256
asVshearwater
p2257
(lp2258
g2257
asVcycad
p2259
(lp2260
g2259
asVtrader
p2261
(lp2262
g2261
aVbargainer
p2263
aVdealer
p2264
aVmonger
p2265
asVmonk
p2266
(lp2267
g2266
aVmonastic
p2268
asVwhiptail
p2269
(lp2270
g2269
asVcolumnist
p2271
(lp2272
g2271
aVeditorialist
p2273
asVsenator
p2274
(lp2275
g2274
asVbuttercup
p2276
(lp2277
g2276
aVcrowfoot
p2278
asVattache
p2279
(lp2280
g2279
asVpercussionist
p2281
(lp2282
g2281
asVtriggerfish
p2283
(lp2284
g2283
asVisopod
p2285
(lp2286
g2285
asVhorehound
p2287
(lp2288
g2287
asVbiographer
p2289
(lp2290
g2289
asVcattail
p2291
(lp2292
g2291
asVturkey
p2293
(lp2294
g2293
asVmare
p2295
(lp2296
g2295
asVtramp
p2297
(lp2298
g2297
aVhobo
p2299
aVbum
p2300
asVdictator
p2301
(lp2302
g2301
aVpotentate
p2303
asVrancher
p2304
(lp2305
g2304
asVinformer
p2306
(lp2307
g2306
aVbetrayer
p2308
aVrat
p2309
aVsquealer
p2310
aVblabber
p2311
asVin-law
p2312
(lp2313
g2312
asVsesbania
p2314
(lp2315
g2314
asVsquash
p2316
(lp2317
g2316
asVtiger
p2318
(lp2319
g2318
asVminister
p2320
(lp2321
g2320
asVrobber
p2322
(lp2323
g2322
asVpilot
p2324
(lp2325
g2324
asVcase
p2326
(lp2327
g2326
asVdiviner
p2328
(lp2329
g2328
asVsagebrush
p2330
(lp2331
g2330
asVpedant
p2332
(lp2333
g2332
aVbookworm
p2334
aVscholastic
p2335
asVcock
p2336
(lp2337
Vcock
p2338
aVrooster
p2339
asVmisanthrope
p2340
(lp2341
g2340
asVcrewman
p2342
(lp2343
g2342
asVcanon
p2344
(lp2345
g2344
asVhawthorn
p2346
(lp2347
g2346
aVhaw
p2348
asVcroaker
p2349
(lp2350
g2349
asVbeaver
p2351
(lp2352
g2351
asVpetunia
p2353
(lp2354
g2353
asVcassia
p2355
(lp2356
g2355
asVshopkeeper
p2357
(lp2358
g2357
aVtradesman
p2359
aVstorekeeper
p2360
asVparticipant
p2361
(lp2362
g2361
asVdoctor
p2363
(lp2364
g2363
aVdoc
p2365
aVphysician
p2366
aVmedico
p2367
asVacacia
p2368
(lp2369
g2368
asVbryony
p2370
(lp2371
g2370
aVbriony
p2372
asVmedic
p2373
(lp2374
g2373
aVtrefoil
p2375
asVconfidant
p2376
(lp2377
g2376
aVintimate
p2378
asVaphid
p2379
(lp2380
g2379
asVcatfish
p2381
(lp2382
g2381
asVgranter
p2383
(lp2384
g2383
asVfoxhound
p2385
(lp2386
g2385
asVfoal
p2387
(lp2388
g2387
asVdriver
p2389
(lp2390
g2389
asVcompanion
p2391
(lp2392
g2391
aVcomrade
p2393
aVfellow
p2394
aVfamiliar
p2395
aVassociate
p2396
asVdirector
p2397
(lp2398
Vdirector
p2399
asVabalone
p2400
(lp2401
g2400
asVwallaby
p2402
(lp2403
g2402
asVhummingbird
p2404
(lp2405
g2404
asVeucalyptus
p2406
(lp2407
g2406
aVeucalypt
p2408
asVperennial
p2409
(lp2410
g2409
asVpoplar
p2411
(lp2412
g2411
asVmodel
p2413
(lp2414
Vmodel
p2415
aVposer
p2416
asVbarberry
p2417
(lp2418
g2417
asVprotege
p2419
(lp2420
g2419
asVracehorse
p2421
(lp2422
g2421
asVergot
p2423
(lp2424
g2423
asVactress
p2425
(lp2426
g2425
asVgorgonian
p2427
(lp2428
g2427
asVmongoose
p2429
(lp2430
g2429
asValarmist
p2431
(lp2432
g2431
asVgenerator
p2433
(lp2434
g2433
aVsource
p2435
aVauthor
p2436
asVfeminist
p2437
(lp2438
g2437
aVlibber
p2439
asVriser
p2440
(lp2441
g2440
asVrose
p2442
(lp2443
g2442
aVrosebush
p2444
asVlender
p2445
(lp2446
g2445
aVloaner
p2447
asVforecaster
p2448
(lp2449
g2448
aVpredictor
p2450
aVprognosticator
p2451
aVsoothsayer
p2452
asVhind
p2453
(lp2454
g2453
asVpupa
p2455
(lp2456
g2455
asVparamyxovirus
p2457
(lp2458
g2457
asVbedstraw
p2459
(lp2460
g2459
asVanchovy
p2461
(lp2462
g2461
asVlarva
p2463
(lp2464
g2463
asVruler
p2465
(lp2466
g2465
asVtamarin
p2467
(lp2468
g2467
asVmoa
p2469
(lp2470
g2469
asVlady
p2471
(lp2472
g2471
asVclam
p2473
(lp2474
g2473
asVsavior
p2475
(lp2476
g2475
aVsaviour
p2477
aVrescuer
p2478
aVdeliverer
p2479
asVarsonist
p2480
(lp2481
g2480
aVincendiary
p2482
aVfirebug
p2483
asVstranger
p2484
(lp2485
g2484
aValien
p2486
aVunknown
p2487
asVchordate
p2488
(lp2489
g2488
asVtwin
p2490
(lp2491
g2490
asVmarmoset
p2492
(lp2493
g2492
asVthrower
p2494
(lp2495
g2494
asVdisputant
p2496
(lp2497
g2496
aVcontroversialist
p2498
asVblackberry
p2499
(lp2500
g2499
asVknapweed
p2501
(lp2502
g2501
asVfriar
p2503
(lp2504
g2503
aVmendicant
p2505
asVdodder
p2506
(lp2507
g2506
asVgroomsman
p2508
(lp2509
g2508
asVjunco
p2510
(lp2511
g2510
aVsnowbird
p2512
asVlandowner
p2513
(lp2514
g2513
aVlandholder
p2515
asVgrub
p2516
(lp2517
g2516
asVwattle
p2518
(lp2519
g2518
asVwalleye
p2520
(lp2521
g2520
aVdory
p2522
asVshowman
p2523
(lp2524
g2523
aVpromoter
p2525
aVimpresario
p2526
asVastronomer
p2527
(lp2528
g2527
aVstargazer
p2529
asVlobster
p2530
(lp2531
g2530
asVhominid
p2532
(lp2533
g2532
asVinformant
p2534
(lp2535
g2534
aVsource
p2536
asVaccomplice
p2537
(lp2538
g2537
aVconfederate
p2539
asVmustard
p2540
(lp2541
g2540
asVmanipulator
p2542
(lp2543
g2542
asVstagehand
p2544
(lp2545
g2544
asVsquire
p2546
(lp2547
g2546
asVconservative
p2548
(lp2549
g2548
asVpioneer
p2550
(lp2551
g2550
asVgardenia
p2552
(lp2553
g2552
asVporter
p2554
(lp2555
g2554
asVwheat
p2556
(lp2557
g2556
asVmanservant
p2558
(lp2559
g2558
asVpackrat
p2560
(lp2561
g2560
asVstrangler
p2562
(lp2563
g2562
asVmanufacturer
p2564
(lp2565
g2564
aVproducer
p2566
asVsandgrouse
p2567
(lp2568
g2567
asVace
p2569
(lp2570
g2569
aVadept
p2571
aVchampion
p2572
aVsensation
p2573
aVmaven
p2574
aVmavin
p2575
aVvirtuoso
p2576
aVgenius
p2577
aVhotshot
p2578
aVstar
p2579
aVsuperstar
p2580
aVwhiz
p2581
aVwhizz
p2582
aVwizard
p2583
aVwiz
p2584
asVphiladelphus
p2585
(lp2586
g2585
asVshrimp
p2587
(lp2588
g2587
asVwolf
p2589
(lp2590
g2589
asVox
p2591
(lp2592
g2591
asVhomeless
p2593
(lp2594
g2593
asVoperator
p2595
(lp2596
g2595
asVwatchdog
p2597
(lp2598
g2597
asVburglar
p2599
(lp2600
g2599
asVliana
p2601
(lp2602
g2601
asVbougainvillea
p2603
(lp2604
g2603
asVhen
p2605
(lp2606
g2605
aVbiddy
p2607
asVhare
p2608
(lp2609
g2608
asVnightshade
p2610
(lp2611
g2610
asVpitcher
p2612
(lp2613
g2612
aVhurler
p2614
aVtwirler
p2615
asVtrogon
p2616
(lp2617
g2616
asVprawn
p2618
(lp2619
g2618
asVsoprano
p2620
(lp2621
g2620
asVascomycete
p2622
(lp2623
g2622
asVrush
p2624
(lp2625
g2624
asVillustrator
p2626
(lp2627
g2626
asVstrawberry
p2628
(lp2629
g2628
asVarranger
p2630
(lp2631
g2630
aVadapter
p2632
aVtranscriber
p2633
asVdraftsman
p2634
(lp2635
g2634
aVdrawer
p2636
asVkinsman
p2637
(lp2638
g2637
asVconqueror
p2639
(lp2640
g2639
aVvanquisher
p2641
asVgrass
p2642
(lp2643
g2642
asVonager
p2644
(lp2645
g2644
asVrust
p2646
(lp2647
g2646
asVimpersonator
p2648
(lp2649
g2648
aVimitator
p2650
asVlactobacillus
p2651
(lp2652
g2651
asVwormwood
p2653
(lp2654
g2653
asVappropriator
p2655
(lp2656
g2655
asVdeer
p2657
(lp2658
g2657
asVgeneral
p2659
(lp2660
g2659
asVlichen
p2661
(lp2662
g2661
asVechinoderm
p2663
(lp2664
g2663
asVmover
p2665
(lp2666
Vmover
p2667
asVhound
p2668
(lp2669
g2668
asVsandpiper
p2670
(lp2671
g2670
asVangelica
p2672
(lp2673
g2672
aVangelique
p2674
asVidiot
p2675
(lp2676
g2675
aVimbecile
p2677
aVcretin
p2678
aVmoron
p2679
aVchangeling
p2680
aVretard
p2681
asVcyprinid
p2682
(lp2683
g2682
asVnutcracker
p2684
(lp2685
g2684
asVhybrid
p2686
(lp2687
g2686
aVcrossbreed
p2688
aVcross
p2689
asVastronaut
p2690
(lp2691
g2690
aVspaceman
p2692
aVcosmonaut
p2693
asVheathen
p2694
(lp2695
g2694
aVpagan
p2696
aVgentile
p2697
aVinfidel
p2698
asVwilding
p2699
(lp2700
g2699
asVauthoritarian
p2701
(lp2702
g2701
aVdictator
p2703
asVignoramus
p2704
(lp2705
g2704
asVbacillus
p2706
(lp2707
g2706
asVlexicographer
p2708
(lp2709
g2708
asVaster
p2710
(lp2711
g2710
asVdeliveryman
p2712
(lp2713
g2712
aVdeliverer
p2714
asVfortuneteller
p2715
(lp2716
g2715
asVspouse
p2717
(lp2718
g2717
aVpartner
p2719
aVmate
p2720
asVpoon
p2721
(lp2722
g2721
asVstreptocarpus
p2723
(lp2724
g2723
asVsardine
p2725
(lp2726
g2725
asVwife
p2727
(lp2728
g2727
asVrescuer
p2729
(lp2730
g2729
aVsaver
p2731
asVcrucifer
p2732
(lp2733
g2732
asVsewer
p2734
(lp2735
g2734
asVbooker
p2736
(lp2737
g2736
asVmourner
p2738
(lp2739
g2738
asVturnstone
p2740
(lp2741
g2740
asVbluejacket
p2742
(lp2743
g2742
aVsailor
p2744
asVlumberman
p2745
(lp2746
g2745
aVlumberjack
p2747
aVlogger
p2748
aVfeller
p2749
aVfaller
p2750
asVforger
p2751
(lp2752
g2751
aVcounterfeiter
p2753
asVpheasant
p2754
(lp2755
g2754
asVfounder
p2756
(lp2757
Vfounder
p2758
asVcrake
p2759
(lp2760
g2759
asVgoatsucker
p2761
(lp2762
g2761
aVnightjar
p2763
asVreligious
p2764
(lp2765
g2764
asVtheropod
p2766
(lp2767
g2766
asVserviceman
p2768
(lp2769
g2768
aVman
p2770
asVpreserver
p2771
(lp2772
Vpreserver
p2773
asVgymnast
p2774
(lp2775
g2774
asVhyrax
p2776
(lp2777
g2776
aVconey
p2778
aVcony
p2779
aVdassie
p2780
aVdas
p2781
asVlogician
p2782
(lp2783
g2782
aVlogistician
p2784
asVstockman
p2785
(lp2786
g2785
asVcress
p2787
(lp2788
g2787
asVmufti
p2789
(lp2790
g2789
asVwoman
p2791
(lp2792
g2791
asVchameleon
p2793
(lp2794
g2793
aVchamaeleon
p2795
asVpsychologist
p2796
(lp2797
g2796
asVscout
p2798
(lp2799
g2798
aVpathfinder
p2800
aVguide
p2801
asVfan
p2802
(lp2803
g2802
aVbuff
p2804
aVdevotee
p2805
aVlover
p2806
asVcandida
p2807
(lp2808
g2807
asVsalmonella
p2809
(lp2810
g2809
asVmarrow
p2811
(lp2812
g2811
asVporgy
p2813
(lp2814
g2813
asVmarigold
p2815
(lp2816
g2815
asVcolumbine
p2817
(lp2818
g2817
aVaquilegia
p2819
asVcelebrity
p2820
(lp2821
g2820
asVdinosaur
p2822
(lp2823
g2822
asVsaboteur
p2824
(lp2825
g2824
aVwrecker
p2826
asVmammal
p2827
(lp2828
g2827
aVmammalian
p2829
asVlangur
p2830
(lp2831
g2830
asVenterovirus
p2832
(lp2833
g2832
asVcockatoo
p2834
(lp2835
g2834
asVwallflower
p2836
(lp2837
g2836
asVaerialist
p2838
(lp2839
g2838
asVgrasshopper
p2840
(lp2841
g2840
aVhopper
p2842
asVmorel
p2843
(lp2844
g2843
asVnegotiator
p2845
(lp2846
g2845
aVtreater
p2847
asVcottonwood
p2848
(lp2849
g2848
asVlawyer
p2850
(lp2851
g2850
aVattorney
p2852
asVbass
p2853
(lp2854
g2853
asVmojarra
p2855
(lp2856
g2855
asVskeptic
p2857
(lp2858
g2857
aVsceptic
p2859
aVdoubter
p2860
asVmagnolia
p2861
(lp2862
g2861
asVassociate
p2863
(lp2864
g2863
asVlearner
p2865
(lp2866
g2865
aVscholar
p2867
asVnurse
p2868
(lp2869
g2868
asVjurist
p2870
(lp2871
g2870
asVwrecker
p2872
(lp2873
g2872
asVconciliator
p2874
(lp2875
g2874
aVpacifier
p2876
aVpeacemaker
p2877
aVreconciler
p2878
asVgametophyte
p2879
(lp2880
g2879
asVfreeholder
p2881
(lp2882
g2881
asVgrape
p2883
(lp2884
g2883
aVgrapevine
p2885
asVcrocus
p2886
(lp2887
g2886
asVthrift
p2888
(lp2889
g2888
asVpublisher
p2890
(lp2891
g2890
asVtortoise
p2892
(lp2893
g2892
asVcetacean
p2894
(lp2895
g2894
aVblower
p2896
asVvegetarian
p2897
(lp2898
g2897
asVsophisticate
p2899
(lp2900
g2899
asVsoldier
p2901
(lp2902
g2901
asVhamster
p2903
(lp2904
g2903
asVdelphinium
p2905
(lp2906
g2905
asVwelder
p2907
(lp2908
g2907
asVstand-in
p2909
(lp2910
g2909
aVsubstitute
p2911
aVrelief
p2912
aVreliever
p2913
aVbackup
p2914
aVfill-in
p2915
asVcaladenia
p2916
(lp2917
g2916
asVtrainer
p2918
(lp2919
g2918
asVmediator
p2920
(lp2921
g2920
aVgo-between
p2922
aVintermediary
p2923
aVintercessor
p2924
asVhalf-caste
p2925
(lp2926
g2925
asVichthyosaur
p2927
(lp2928
g2927
asVvetch
p2929
(lp2930
g2929
asVfollower
p2931
(lp2932
Vfollower
p2933
asVcaptor
p2934
(lp2935
g2934
asVgermander
p2936
(lp2937
g2936
asVsynapsid
p2938
(lp2939
g2938
asVherring
p2940
(lp2941
g2940
asVdachshund
p2942
(lp2943
g2942
asVlegislator
p2944
(lp2945
g2944
asVlibertine
p2946
(lp2947
g2946
aVrounder
p2948
asVstander
p2949
(lp2950
g2949
asVpoodle
p2951
(lp2952
g2951
asVrustic
p2953
(lp2954
g2953
asVpolecat
p2955
(lp2956
g2955
aVfitch
p2957
asVcannabis
p2958
(lp2959
g2958
aVhemp
p2960
asVaconite
p2961
(lp2962
g2961
asVchestnut
p2963
(lp2964
g2963
asVladybug
p2965
(lp2966
g2965
aVladybird
p2967
asVchimpanzee
p2968
(lp2969
g2968
aVchimp
p2970
asVtapeworm
p2971
(lp2972
g2971
asVnomad
p2973
(lp2974
g2973
asVlibrarian
p2975
(lp2976
g2975
asVcoyote
p2977
(lp2978
g2977
asVkrill
p2979
(lp2980
g2979
asVchaplain
p2981
(lp2982
g2981
asVdebater
p2983
(lp2984
g2983
asVprimate
p2985
(lp2986
g2985
asVpatriarch
p2987
(lp2988
g2987
asVlobelia
p2989
(lp2990
g2989
asVwrestler
p2991
(lp2992
g2991
aVgrappler
p2993
asVmale
p2994
(lp2995
Vmale
p2996
asVshark
p2997
(lp2998
Vshark
p2999
asVsuffragist
p3000
(lp3001
g3000
asVpusher
p3002
(lp3003
g3002
aVshover
p3004
asVpublicist
p3005
(lp3006
g3005
asVscad
p3007
(lp3008
g3007
asVjackrabbit
p3009
(lp3010
g3009
asVlibertarian
p3011
(lp3012
g3011
asVpinscher
p3013
(lp3014
g3013
asVoffspring
p3015
(lp3016
g3015
aVprogeny
p3017
aVissue
p3018
asVbotanist
p3019
(lp3020
g3019
asVmacadamia
p3021
(lp3022
g3021
asVyeast
p3023
(lp3024
g3023
asVperegrine
p3025
(lp3026
g3025
asVmagpie
p3027
(lp3028
g3027
asVgoat
p3029
(lp3030
g3029
asVmoloch
p3031
(lp3032
g3031
asVplant
p3033
(lp3034
g3033
aVflora
p3035
asVmender
p3036
(lp3037
g3036
aVrepairer
p3038
aVfixer
p3039
asVsalesclerk
p3040
(lp3041
g3040
aVclerk
p3042
asVfoxtail
p3043
(lp3044
g3043
asVfungus
p3045
(lp3046
g3045
asVabsconder
p3047
(lp3048
g3047
asVusurper
p3049
(lp3050
g3049
asVallamanda
p3051
(lp3052
g3051
asVdeserter
p3053
(lp3054
g3053
aVdefector
p3055
asVliquidambar
p3056
(lp3057
g3056
asVwaterfowl
p3058
(lp3059
g3058
aVwaterbird
p3060
asVscientist
p3061
(lp3062
g3061
asVscorpionfish
p3063
(lp3064
g3063
asVtaxpayer
p3065
(lp3066
g3065
asVenvironmentalist
p3067
(lp3068
g3067
aVconservationist
p3069
asVhouseplant
p3070
(lp3071
g3070
asVheron
p3072
(lp3073
g3072
asVanthurium
p3074
(lp3075
g3074
asVprodigy
p3076
(lp3077
g3076
asVoxalis
p3078
(lp3079
g3078
aVsorrel
p3080
asVradical
p3081
(lp3082
g3081
asVanaerobe
p3083
(lp3084
g3083
asVally
p3085
(lp3086
g3085
aVfriend
p3087
asVfool
p3088
(lp3089
g3088
aVsap
p3090
aVmuggins
p3091
asVpickerel
p3092
(lp3093
g3092
asVtumbler
p3094
(lp3095
g3094
asVsucker
p3096
(lp3097
g3096
asVhunter
p3098
(lp3099
Vhunter
p3100
aVhuntsman
p3101
asVpredator
p3102
(lp3103
g3102
asVsalamander
p3104
(lp3105
g3104
asVlimpet
p3106
(lp3107
g3106
asVslicker
p3108
(lp3109
g3108
asVschoolteacher
p3110
(lp3111
g3110
asVpayer
p3112
(lp3113
g3112
asVmathematician
p3114
(lp3115
g3114
asVcourser
p3116
(lp3117
g3116
asVmegapode
p3118
(lp3119
g3118
asVfish
p3120
(lp3121
g3120
asVcampanula
p3122
(lp3123
g3122
aVbellflower
p3124
asVduchess
p3125
(lp3126
g3125
asVsarsaparilla
p3127
(lp3128
g3127
asVslave
p3129
(lp3130
g3129
asVabstractionist
p3131
(lp3132
g3131
asVflower
p3133
(lp3134
g3133
asVcreditor
p3135
(lp3136
g3135
asVactinomycete
p3137
(lp3138
g3137
asVsympathizer
p3139
(lp3140
Vsympathizer
p3141
aVsympathiser
p3142
aVcomforter
p3143
asVpigeon
p3144
(lp3145
g3144
asVdisbeliever
p3146
(lp3147
g3146
aVnonbeliever
p3148
aVunbeliever
p3149
asVinquirer
p3150
(lp3151
g3150
aVenquirer
p3152
aVquestioner
p3153
aVasker
p3154
asVpeafowl
p3155
(lp3156
g3155
asVdarling
p3157
(lp3158
g3157
aVfavorite
p3159
aVfavourite
p3160
aVpet
p3161
aVdearie
p3162
aVdeary
p3163
aVducky
p3164
asVgardener
p3165
(lp3166
Vgardener
p3167
asVass
p3168
(lp3169
g3168
asVsilversides
p3170
(lp3171
g3170
aVsilverside
p3172
asVcalamus
p3173
(lp3174
g3173
asVbully
p3175
(lp3176
g3175
aVtough
p3177
aVhooligan
p3178
aVruffian
p3179
aVroughneck
p3180
aVrowdy
p3181
aVyob
p3182
aVyobo
p3183
asVhorse
p3184
(lp3185
g3184
asVcockroach
p3186
(lp3187
g3186
aVroach
p3188
asVbutcherbird
p3189
(lp3190
g3189
asVattendant
p3191
(lp3192
Vattendant
p3193
aVattender
p3194
aVtender
p3195
asVweed
p3196
(lp3197
g3196
asVpup
p3198
(lp3199
g3198
aVwhelp
p3200
asValbatross
p3201
(lp3202
g3201
asVparodist
p3203
(lp3204
g3203
asVprophet
p3205
(lp3206
g3205
aVoracle
p3207
aVseer
p3208
asVlemur
p3209
(lp3210
g3209
asVsubshrub
p3211
(lp3212
g3211
asVdaisy
p3213
(lp3214
g3213
asVporpoise
p3215
(lp3216
g3215
asVcopper
p3217
(lp3218
g3217
asVguan
p3219
(lp3220
g3219
asVelder
p3221
(lp3222
Velder
p3223
asVsailor
p3224
(lp3225
g3224
aVcrewman
p3226
asVlychnis
p3227
(lp3228
g3227
aVcatchfly
p3229
asVnarcissus
p3230
(lp3231
g3230
asVtraveler
p3232
(lp3233
g3232
aVtraveller
p3234
asVmaple
p3235
(lp3236
g3235
asVstork
p3237
(lp3238
g3237
asVpensioner
p3239
(lp3240
g3239
aVpensionary
p3241
asVmagician
p3242
(lp3243
g3242
aVconjurer
p3244
aVconjuror
p3245
aVillusionist
p3246
asVguest
p3247
(lp3248
Vguest
p3249
asVtare
p3250
(lp3251
g3250
asVmilitant
p3252
(lp3253
g3252
aVactivist
p3254
asVadenovirus
p3255
(lp3256
g3255
asVsaint
p3257
(lp3258
g3257
aVangel
p3259
asVperiwinkle
p3260
(lp3261
g3260
asVbanana
p3262
(lp3263
g3262
asVlawman
p3264
(lp3265
g3264
asVdraper
p3266
(lp3267
g3266
asVinterviewee
p3268
(lp3269
g3268
asVdogbane
p3270
(lp3271
g3270
asVtrapper
p3272
(lp3273
g3272
asVtreasurer
p3274
(lp3275
g3274
asVwayfarer
p3276
(lp3277
g3276
asVreliever
p3278
(lp3279
g3278
aVfireman
p3280
asVapprentice
p3281
(lp3282
g3281
aVlearner
p3283
aVprentice
p3284
asVking
p3285
(lp3286
g3285
asVastilbe
p3287
(lp3288
g3287
asVliverwort
p3289
(lp3290
g3289
aVhepatic
p3291
asVdetractor
p3292
(lp3293
g3292
aVknocker
p3294
asVbride
p3295
(lp3296
g3295
asVdamselfish
p3297
(lp3298
g3297
aVdemoiselle
p3299
asVarchitect
p3300
(lp3301
g3300
aVdesigner
p3302
asVshrike
p3303
(lp3304
g3303
asVstickleback
p3305
(lp3306
g3305
asVexecutioner
p3307
(lp3308
g3307
asVcleaner
p3309
(lp3310
g3309
asVcyanobacteria
p3311
(lp3312
g3311
asVpedestrian
p3313
(lp3314
g3313
aVwalker
p3315
aVfooter
p3316
asVreprobate
p3317
(lp3318
g3317
aVmiscreant
p3319
asVidler
p3320
(lp3321
g3320
aVloafer
p3322
aVdo-nothing
p3323
aVlayabout
p3324
aVbum
p3325
asVthreadfin
p3326
(lp3327
g3326
asVballerina
p3328
(lp3329
g3328
aVdanseuse
p3330
asVbuckthorn
p3331
(lp3332
Vbuckthorn
p3333
asVtattler
p3334
(lp3335
g3334
asVself
p3336
(lp3337
g3336
asVheterosexual
p3338
(lp3339
g3338
aVstraight
p3340
asVcavy
p3341
(lp3342
g3341
asVdonor
p3343
(lp3344
Vdonor
p3345
asVsandwort
p3346
(lp3347
g3346
asVlisteria
p3348
(lp3349
g3348
asVeubacteria
p3350
(lp3351
g3350
asVinstigator
p3352
(lp3353
Vinstigator
p3354
aVfirebrand
p3355
asVmeasurer
p3356
(lp3357
g3356
asVsalmon
p3358
(lp3359
g3358
asVvirus
p3360
(lp3361
g3360
asVmoss
p3362
(lp3363
g3362
asVdaphne
p3364
(lp3365
g3364
asVzoysia
p3366
(lp3367
g3366
asVoyster
p3368
(lp3369
g3368
asVbreaker
p3370
(lp3371
g3370
asVspoilsport
p3372
(lp3373
g3372
aVkilljoy
p3374
asVdentist
p3375
(lp3376
g3375
asVhyena
p3377
(lp3378
g3377
aVhyaena
p3379
asVamphibian
p3380
(lp3381
g3380
asVgrama
p3382
(lp3383
g3382
aVgramma
p3384
asVsinner
p3385
(lp3386
g3385
aVevildoer
p3387
asVorganism
p3388
(lp3389
g3388
aVbeing
p3390
asVsparrow
p3391
(lp3392
g3391
asVballplayer
p3393
(lp3394
g3393
asVflicker
p3395
(lp3396
g3395
asVspirochete
p3397
(lp3398
g3397
asVdefender
p3399
(lp3400
g3399
aVguardian
p3401
aVprotector
p3402
asVbrahman
p3403
(lp3404
g3403
aVbrahmin
p3405
asVcondor
p3406
(lp3407
g3406
asVwriter
p3408
(lp3409
Vwriter
p3410
asVpokeweed
p3411
(lp3412
g3411
asVmaranta
p3413
(lp3414
g3413
asVheadman
p3415
(lp3416
g3415
aVchieftain
p3417
aVchief
p3418
asVporcupine
p3419
(lp3420
g3419
aVhedgehog
p3421
asVdandelion
p3422
(lp3423
g3422
asVcustodian
p3424
(lp3425
g3424
aVkeeper
p3426
aVsteward
p3427
asVbatter
p3428
(lp3429
g3428
aVhitter
p3430
aVslugger
p3431
aVbatsman
p3432
asVdrunkard
p3433
(lp3434
g3433
aVdrunk
p3435
aVrummy
p3436
aVsot
p3437
aVinebriate
p3438
aVwino
p3439
asVfleabane
p3440
(lp3441
g3440
asVcompiler
p3442
(lp3443
g3442
asVenemy
p3444
(lp3445
g3444
aVfoe
p3446
aVopposition
p3447
asVengraver
p3448
(lp3449
g3448
asVappreciator
p3450
(lp3451
g3450
asVagapanthus
p3452
(lp3453
g3452
asVdouble
p3454
(lp3455
g3454
aVimage
p3456
aVlook-alike
p3457
asVcorgi
p3458
(lp3459
g3458
asVweaver
p3460
(lp3461
g3460
asVtaxonomist
p3462
(lp3463
g3462
asVcreator
p3464
(lp3465
g3464
asVaccentor
p3466
(lp3467
g3466
asVvine
p3468
(lp3469
g3468
asVjerboa
p3470
(lp3471
g3470
asVachiever
p3472
(lp3473
g3472
aVwinner
p3474
aVsuccess
p3475
asVlion
p3476
(lp3477
g3476
asVindividual
p3478
(lp3479
g3478
asVthistle
p3480
(lp3481
g3480
asVlaurel
p3482
(lp3483
g3482
asVblasphemer
p3484
(lp3485
g3484
asVsahib
p3486
(lp3487
g3486
asVfoxglove
p3488
(lp3489
g3488
aVdigitalis
p3490
asVhibiscus
p3491
(lp3492
g3491
asVpersonification
p3493
(lp3494
g3493
asVexpert
p3495
(lp3496
g3495
asVobstructionist
p3497
(lp3498
g3497
aVresister
p3499
asVpowerhouse
p3500
(lp3501
g3500
aVfireball
p3502
asVgrocer
p3503
(lp3504
g3503
asVsapsucker
p3505
(lp3506
g3505
asVnasturtium
p3507
(lp3508
g3507
asVmildew
p3509
(lp3510
g3509
asVbettor
p3511
(lp3512
g3511
aVbetter
p3513
aVpunter
p3514
asVsole
p3515
(lp3516
g3515
asVshaman
p3517
(lp3518
g3517
asVpagan
p3519
(lp3520
g3519
asVlass
p3521
(lp3522
g3521
aVlassie
p3523
asVvulgarian
p3524
(lp3525
g3524
asVpasserine
p3526
(lp3527
g3526
asVilliterate
p3528
(lp3529
g3528
asVcynic
p3530
(lp3531
g3530
asVsloth
p3532
(lp3533
g3532
asVelectrician
p3534
(lp3535
g3534
aVlineman
p3536
aVlinesman
p3537
asVdrunk
p3538
(lp3539
g3538
asVchaperon
p3540
(lp3541
g3540
aVchaperone
p3542
asVgriffon
p3543
(lp3544
g3543
asVgadfly
p3545
(lp3546
g3545
asVscallop
p3547
(lp3548
g3547
asVdancer
p3549
(lp3550
Vdancer
p3551
asVhollyhock
p3552
(lp3553
g3552
asVweasel
p3554
(lp3555
g3554
asValumnus
p3556
(lp3557
g3556
aValumna
p3558
aValum
p3559
aVgraduate
p3560
aVgrad
p3561
asVcombatant
p3562
(lp3563
g3562
aVbattler
p3564
aVbelligerent
p3565
aVfighter
p3566
aVscrapper
p3567
asVwisteria
p3568
(lp3569
g3568
asVcinquefoil
p3570
(lp3571
g3570
asVvertebrate
p3572
(lp3573
g3572
asVmiser
p3574
(lp3575
g3574
asVdanaid
p3576
(lp3577
g3576
asVcollaborator
p3578
(lp3579
g3578
aVcooperator
p3580
aVpartner
p3581
aVpardner
p3582
asVchandler
p3583
(lp3584
Vchandler
p3585
asVdame
p3586
(lp3587
g3586
aVmadam
p3588
aVma'am
p3589
aVlady
p3590
aVgentlewoman
p3591
asVwalrus
p3592
(lp3593
g3592
aVseahorse
p3594
asVsweetheart
p3595
(lp3596
g3595
aVsweetie
p3597
aVsteady
p3598
aVtruelove
p3599
asVchampion
p3600
(lp3601
g3600
aVchamp
p3602
aVtitle-holder
p3603
asVboy
p3604
(lp3605
g3604
asVupstart
p3606
(lp3607
Vupstart
p3608
aVparvenu
p3609
aVarriviste
p3610
asVacolyte
p3611
(lp3612
g3611
asVracer
p3613
(lp3614
Vracer
p3615
asVrepresentative
p3616
(lp3617
g3616
asVpolitician
p3618
(lp3619
Vpolitician
p3620
aVpolitico
p3621
aVpol
p3622
asVpilgrim
p3623
(lp3624
g3623
asVdecapod
p3625
(lp3626
g3625
asVsocialist
p3627
(lp3628
g3627
asVpessimist
p3629
(lp3630
g3629
asVgovernor
p3631
(lp3632
g3631
asVmortician
p3633
(lp3634
g3633
aVundertaker
p3635
asVskier
p3636
(lp3637
g3636
asVguide
p3638
(lp3639
g3638
asVquarryman
p3640
(lp3641
g3640
aVquarrier
p3642
asVblond
p3643
(lp3644
g3643
aVblonde
p3645
asVcanna
p3646
(lp3647
g3646
asVmoth
p3648
(lp3649
g3648
asVmystic
p3650
(lp3651
g3650
asVcalculator
p3652
(lp3653
g3652
aVreckoner
p3654
aVestimator
p3655
aVcomputer
p3656
asVbluegrass
p3657
(lp3658
g3657
asVforebear
p3659
(lp3660
g3659
aVforbear
p3661
asVdebaser
p3662
(lp3663
g3662
asVmallow
p3664
(lp3665
g3664
asVembroiderer
p3666
(lp3667
g3666
asVblackwood
p3668
(lp3669
g3668
asVeland
p3670
(lp3671
g3670
asVsociologist
p3672
(lp3673
g3672
asVdecoy
p3674
(lp3675
g3674
aVsteerer
p3676
asVbutcher
p3677
(lp3678
Vbutcher
p3679
aVslaughterer
p3680
asVshad
p3681
(lp3682
g3681
asVhoneybee
p3683
(lp3684
g3683
asVyucca
p3685
(lp3686
g3685
asVcaracara
p3687
(lp3688
g3687
asVbiochemist
p3689
(lp3690
g3689
asVsnail
p3691
(lp3692
g3691
asVplantain
p3693
(lp3694
g3693
asVleopard
p3695
(lp3696
g3695
asVuser
p3697
(lp3698
g3697
asVbirch
p3699
(lp3700
g3699
asVbrome
p3701
(lp3702
g3701
asVbourgeois
p3703
(lp3704
g3703
aVburgher
p3705
asVsumac
p3706
(lp3707
g3706
asVhoopoe
p3708
(lp3709
g3708
asVperson
p3710
(lp3711
g3710
aVindividual
p3712
aVsomeone
p3713
aVsomebody
p3714
aVmortal
p3715
aVsoul
p3716
asVauditor
p3717
(lp3718
g3717
asVcrayfish
p3719
(lp3720
g3719
aVcrawfish
p3721
aVcrawdad
p3722
aVcrawdaddy
p3723
asVtanager
p3724
(lp3725
g3724
asVroaster
p3726
(lp3727
g3726
asVadvertiser
p3728
(lp3729
g3728
aVadman
p3730
asVreviewer
p3731
(lp3732
g3731
aVreferee
p3733
aVreader
p3734
asVconstrictor
p3735
(lp3736
g3735
asVprince
p3737
(lp3738
g3737
asVcur
p3739
(lp3740
Vcur
p3741
asVrecipient
p3742
(lp3743
g3742
aVreceiver
p3744
asVcontractor
p3745
(lp3746
Vcontractor
p3747
asVcub
p3748
(lp3749
g3748
asVrifleman
p3750
(lp3751
g3750
asVwrongdoer
p3752
(lp3753
g3752
aVoffender
p3754
asVkumquat
p3755
(lp3756
g3755
asVfinder
p3757
(lp3758
g3757
aVdiscoverer
p3759
aVspotter
p3760
asVhater
p3761
(lp3762
g3761
asVadvocate
p3763
(lp3764
g3763
aVadvocator
p3765
aVproponent
p3766
aVexponent
p3767
asVbureaucrat
p3768
(lp3769
g3768
asVruff
p3770
(lp3771
g3770
asVgame
p3772
(lp3773
g3772
asVvanda
p3774
(lp3775
g3774
asVfalcon
p3776
(lp3777
g3776
asVspirea
p3778
(lp3779
g3778
aVspiraea
p3780
asVburdock
p3781
(lp3782
g3781
asVretrovirus
p3783
(lp3784
g3783
asVmarlin
p3785
(lp3786
g3785
asVcoronilla
p3787
(lp3788
g3787
asVeel
p3789
(lp3790
g3789
asVscoter
p3791
(lp3792
g3791
aVscooter
p3793
asVbamboo
p3794
(lp3795
g3794
asVtoastmaster
p3796
(lp3797
g3796
asVendorser
p3798
(lp3799
g3798
asVpilchard
p3800
(lp3801
g3800
aVsardine
p3802
asVwintergreen
p3803
(lp3804
g3803
asVpiglet
p3805
(lp3806
g3805
aVpiggy
p3807
asVforeman
p3808
(lp3809
g3808
aVchief
p3810
aVgaffer
p3811
aVhoncho
p3812
aVboss
p3813
asVscriptwriter
p3814
(lp3815
g3814
asVduck
p3816
(lp3817
g3816
asVback
p3818
(lp3819
g3818
asVtestator
p3820
(lp3821
g3820
aVtestate
p3822
asVloser
p3823
(lp3824
g3823
aValso-ran
p3825
asVcicada
p3826
(lp3827
g3826
aVcicala
p3828
asVdoorkeeper
p3829
(lp3830
g3829
aVdoorman
p3831
aVporter
p3832
aVgatekeeper
p3833
asVlemming
p3834
(lp3835
g3834
asVmustang
p3836
(lp3837
g3836
asVsavage
p3838
(lp3839
g3838
aVbarbarian
p3840
asVacquaintance
p3841
(lp3842
g3841
aVfriend
p3843
asVvacationer
p3844
(lp3845
g3844
asVclematis
p3846
(lp3847
g3846
asVseller
p3848
(lp3849
g3848
aVmarketer
p3850
aVvender
p3851
aVvendor
p3852
aVtrafficker
p3853
asVgrevillea
p3854
(lp3855
g3854
asVdeliverer
p3856
(lp3857
g3856
asVlark
p3858
(lp3859
g3858
asVheadmaster
p3860
(lp3861
g3860
aVschoolmaster
p3862
aVmaster
p3863
asVpatient
p3864
(lp3865
g3864
asVbenefactor
p3866
(lp3867
g3866
aVhelper
p3868
asVgrosbeak
p3869
(lp3870
g3869
asVpondweed
p3871
(lp3872
g3871
asVraspberry
p3873
(lp3874
g3873
asVsawfish
p3875
(lp3876
g3875
asVprimrose
p3877
(lp3878
g3877
aVprimula
p3879
asVcareerist
p3880
(lp3881
g3880
asVwoodlouse
p3882
(lp3883
g3882
aVslater
p3884
asVyellowwood
p3885
(lp3886
g3885
asVcongressman
p3887
(lp3888
g3887
aVcongresswoman
p3889
aVrepresentative
p3890
asVobstetrician
p3891
(lp3892
g3891
asVliberator
p3893
(lp3894
g3893
asVmicroorganism
p3895
(lp3896
g3895
aVmicro-organism
p3897
asVviola
p3898
(lp3899
g3898
asVcaretaker
p3900
(lp3901
g3900
asVretailer
p3902
(lp3903
g3902
asVmilkweed
p3904
(lp3905
g3904
asVpolygamist
p3906
(lp3907
g3906
asVmartinet
p3908
(lp3909
g3908
aVdisciplinarian
p3910
aVmoralist
p3911
asVparsnip
p3912
(lp3913
g3912
asVnarrator
p3914
(lp3915
g3914
aVstoryteller
p3916
aVteller
p3917
asVcoleus
p3918
(lp3919
g3918
asVcolobus
p3920
(lp3921
g3920
asVtoucan
p3922
(lp3923
g3922
asVcrane
p3924
(lp3925
g3924
asVbandicoot
p3926
(lp3927
g3926
asVpenguin
p3928
(lp3929
g3928
asVpositivist
p3930
(lp3931
g3930
aVrationalist
p3932
asVforefather
p3933
(lp3934
g3933
aVfather
p3935
aVsire
p3936
asVcroton
p3937
(lp3938
g3937
asVapricot
p3939
(lp3940
g3939
asVcaller
p3941
(lp3942
g3941
asVhelleborine
p3943
(lp3944
Vhelleborine
p3945
asVerica
p3946
(lp3947
g3946
asVcharmer
p3948
(lp3949
g3948
asVstepparent
p3950
(lp3951
g3950
asVhornet
p3952
(lp3953
g3952
asVpythium
p3954
(lp3955
g3954
asVsupervisor
p3956
(lp3957
g3956
asVnationalist
p3958
(lp3959
g3958
asVchar
p3960
(lp3961
g3960
aVcharr
p3962
asVeconomizer
p3963
(lp3964
g3963
asVchap
p3965
(lp3966
g3965
aVfellow
p3967
aVfeller
p3968
aVfella
p3969
aVlad
p3970
aVgent
p3971
aVcuss
p3972
aVbloke
p3973
asVtroublemaker
p3974
(lp3975
g3974
asVgecko
p3976
(lp3977
g3976
asVcotton
p3978
(lp3979
g3978
asVnettle
p3980
(lp3981
g3980
asVchachalaca
p3982
(lp3983
g3982
asVlemon
p3984
(lp3985
g3984
asVgrouper
p3986
(lp3987
g3986
asVcreeper
p3988
(lp3989
g3988
asVcardinalfish
p3990
(lp3991
g3990
asVlepiota
p3992
(lp3993
g3992
asVstepchild
p3994
(lp3995
g3994
asVparalytic
p3996
(lp3997
g3996
asVparakeet
p3998
(lp3999
g3998
asVmammoth
p4000
(lp4001
g4000
asVvireo
p4002
(lp4003
g4002
asVsorcerer
p4004
(lp4005
g4004
aVmagician
p4006
aVwizard
p4007
aVnecromancer
p4008
asVsmiler
p4009
(lp4010
g4009
asVhammerhead
p4011
(lp4012
g4011
asVsalvager
p4013
(lp4014
g4013
aVsalvor
p4015
asVrester
p4016
(lp4017
g4016
asVareca
p4018
(lp4019
g4018
asVoriganum
p4020
(lp4021
g4020
asVteasel
p4022
(lp4023
g4022
aVteasle
p4024
asVinsect
p4025
(lp4026
g4025
asVearthstar
p4027
(lp4028
g4027
asVshrub
p4029
(lp4030
g4029
aVbush
p4031
asVstatesman
p4032
(lp4033
g4032
aVsolon
p4034
asVcrabgrass
p4035
(lp4036
g4035
asVhellebore
p4037
(lp4038
Vhellebore
p4039
asVsawyer
p4040
(lp4041
g4040
asVreasoner
p4042
(lp4043
g4042
asVenrollee
p4044
(lp4045
g4044
asVectoparasite
p4046
(lp4047
g4046
asVcaribou
p4048
(lp4049
g4048
aVreindeer
p4050
asVstyrax
p4051
(lp4052
g4051
asVpervert
p4053
(lp4054
g4053
aVdeviant
p4055
aVdeviate
p4056
aVdegenerate
p4057
asVwhiting
p4058
(lp4059
g4058
asVpuffball
p4060
(lp4061
g4060
asVcommoner
p4062
(lp4063
g4062
asVwebworm
p4064
(lp4065
g4064
asVgossip
p4066
(lp4067
g4066
aVgossiper
p4068
asVgolfer
p4069
(lp4070
g4069
asVvinifera
p4071
(lp4072
g4071
asVbaron
p4073
(lp4074
g4073
aVking
p4075
aVmagnate
p4076
aVmogul
p4077
aVpower
p4078
aVtycoon
p4079
asVagamid
p4080
(lp4081
g4080
asVblowfly
p4082
(lp4083
g4082
asVmullein
p4084
(lp4085
g4084
asVyoung
p4086
(lp4087
g4086
aVoffspring
p4088
asVgeranium
p4089
(lp4090
g4089
asVwidgeon
p4091
(lp4092
g4091
aVwigeon
p4093
asVsculptor
p4094
(lp4095
g4094
aVcarver
p4096
asVdandy
p4097
(lp4098
g4097
aVdude
p4099
aVfop
p4100
aVgallant
p4101
aVsheik
p4102
aVbeau
p4103
aVswell
p4104
aVclotheshorse
p4105
asVproctor
p4106
(lp4107
g4106
aVmonitor
p4108
asValder
p4109
(lp4110
g4109
asVllama
p4111
(lp4112
g4111
asVoarsman
p4113
(lp4114
g4113
aVrower
p4115
asVsurgeon
p4116
(lp4117
g4116
asVknight
p4118
(lp4119
g4118
asVcaladium
p4120
(lp4121
g4120
asVquahog
p4122
(lp4123
g4122
asVjobber
p4124
(lp4125
g4124
aVmiddleman
p4126
aVwholesaler
p4127
asVcrow
p4128
(lp4129
g4128
asVcrop
p4130
(lp4131
g4130
asVnephew
p4132
(lp4133
g4132
asVmanta
p4134
(lp4135
g4134
aVdevilfish
p4136
asVcephalopod
p4137
(lp4138
g4137
asVvictor
p4139
(lp4140
g4139
aVmaster
p4141
aVsuperior
p4142
asVbutterfish
p4143
(lp4144
g4143
asVprocurator
p4145
(lp4146
g4145
asVcolonel
p4147
(lp4148
g4147
asVpiper
p4149
(lp4150
g4149
aVbagpiper
p4151
asVtrillium
p4152
(lp4153
g4152
asVbird
p4154
(lp4155
g4154
asVwhitefly
p4156
(lp4157
g4156
asVurchin
p4158
(lp4159
g4158
asVkangaroo
p4160
(lp4161
g4160
asVkidnapper
p4162
(lp4163
g4162
aVabductor
p4164
aVsnatcher
p4165
asVibis
p4166
(lp4167
g4166
asVpipefish
p4168
(lp4169
g4168
aVneedlefish
p4170
asVbegonia
p4171
(lp4172
g4171
asVgaillardia
p4173
(lp4174
g4173
asVyellowlegs
p4175
(lp4176
g4175
asVconvert
p4177
(lp4178
g4177
asVposeur
p4179
(lp4180
g4179
aVposer
p4181
asVgrandchild
p4182
(lp4183
g4182
asVoverseer
p4184
(lp4185
g4184
aVsuperintendent
p4186
asVsimpleton
p4187
(lp4188
g4187
aVsimple
p4189
asVmussel
p4190
(lp4191
g4190
asVmaker
p4192
(lp4193
g4192
aVshaper
p4194
asVvole
p4195
(lp4196
g4195
asVdeputy
p4197
(lp4198
Vdeputy
p4199
aVlieutenant
p4200
asVcuckold
p4201
(lp4202
g4201
asVterrapin
p4203
(lp4204
g4203
asVdormouse
p4205
(lp4206
g4205
asVcomposer
p4207
(lp4208
g4207
asVgoldeneye
p4209
(lp4210
g4209
aVwhistler
p4211
asVape
p4212
(lp4213
g4212
asVarenavirus
p4214
(lp4215
g4214
asVsnoop
p4216
(lp4217
g4216
aVsnooper
p4218
asVarchbishop
p4219
(lp4220
g4219
asVfrog
p4221
(lp4222
g4221
aVtoad
p4223
aVanuran
p4224
asVoryx
p4225
(lp4226
g4225
aVpasang
p4227
asVcrab
p4228
(lp4229
g4228
asVhelianthemum
p4230
(lp4231
g4230
asVnewscaster
p4232
(lp4233
g4232
asVdefendant
p4234
(lp4235
g4234
aVsuspect
p4236
asVcompatriot
p4237
(lp4238
g4237
asViris
p4239
(lp4240
g4239
aVflag
p4241
aVfleur-de-lis
p4242
asVmusician
p4243
(lp4244
Vmusician
p4245
aVinstrumentalist
p4246
aVplayer
p4247
asVheir
p4248
(lp4249
g4248
aVinheritor
p4250
asVarmadillo
p4251
(lp4252
g4251
asVrabbit
p4253
(lp4254
g4253
aVconey
p4255
aVcony
p4256
asVbaby
p4257
(lp4258
g4257
aVbabe
p4259
aVinfant
p4260
asVappointee
p4261
(lp4262
g4261
asVstarter
p4263
(lp4264
g4263
asVcustomer
p4265
(lp4266
g4265
aVclient
p4267
asVconsort
p4268
(lp4269
g4268
asVathlete
p4270
(lp4271
g4270
aVjock
p4272
asVlarch
p4273
(lp4274
g4273
asVarcher
p4275
(lp4276
g4275
aVbowman
p4277
asVexecutor
p4278
(lp4279
g4278
asVgastropod
p4280
(lp4281
g4280
asVbent
p4282
(lp4283
g4282
asVpatron
p4284
(lp4285
Vpatron
p4286
aVfrequenter
p4287
asVtherapsid
p4288
(lp4289
g4288
asVanemone
p4290
(lp4291
g4290
asVvillain
p4292
(lp4293
g4292
aVscoundrel
p4294
asVspruce
p4295
(lp4296
g4295
asVbowerbird
p4297
(lp4298
g4297
aVcatbird
p4299
asVmartyr
p4300
(lp4301
Vmartyr
p4302
asVnative
p4303
(lp4304
g4303
aVindigene
p4305
aVaborigine
p4306
aVaboriginal
p4307
asVegret
p4308
(lp4309
g4308
asVlama
p4310
(lp4311
g4310
asVembodiment
p4312
(lp4313
g4312
aVincarnation
p4314
aVavatar
p4315
asVrhubarb
p4316
(lp4317
g4316
asVthrall
p4318
(lp4319
g4318
asVlycaenid
p4320
(lp4321
g4320
asVmoocher
p4322
(lp4323
g4322
aVmooch
p4324
aVscrounger
p4325
asVanimal
p4326
(lp4327
g4326
aVbeast
p4328
aVbrute
p4329
aVcreature
p4330
aVfauna
p4331
asVstock
p4332
(lp4333
g4332
asVlamb
p4334
(lp4335
g4334
asVadministrator
p4336
(lp4337
Vadministrator
p4338
aVexecutive
p4339
asVmilitarist
p4340
(lp4341
g4340
aVwarmonger
p4342
asVcommunicator
p4343
(lp4344
g4343
asVcabbage
p4345
(lp4346
g4345
asVhawk
p4347
(lp4348
g4347
asVterrier
p4349
(lp4350
g4349
asVtomato
p4351
(lp4352
g4351
asVkingbird
p4353
(lp4354
g4353
asVpoacher
p4355
(lp4356
g4355
asVschoolchild
p4357
(lp4358
g4357
aVpupil
p4359
asVwomanizer
p4360
(lp4361
g4360
aVwomaniser
p4362
aVphilanderer
p4363
asVcharacin
p4364
(lp4365
g4364
asVhake
p4366
(lp4367
g4366
asVantelope
p4368
(lp4369
g4368
asVproducer
p4370
(lp4371
g4370
asVmute
p4372
(lp4373
g4372
aVdeaf-mute
p4374
asVcadet
p4375
(lp4376
g4375
aVplebe
p4377
asVferryman
p4378
(lp4379
g4378
asVtyrant
p4380
(lp4381
g4380
aVautocrat
p4382
aVdespot
p4383
asVinterpreter
p4384
(lp4385
g4384
aVtranslator
p4386
asVneurotic
p4387
(lp4388
g4387
asVbadger
p4389
(lp4390
g4389
asVmonarchist
p4391
(lp4392
g4391
aVroyalist
p4393
asVsuperior
p4394
(lp4395
Vsuperior
p4396
asVsilkworm
p4397
(lp4398
g4397
asVcotinga
p4399
(lp4400
g4399
aVchatterer
p4401
asVguerrilla
p4402
(lp4403
g4402
aVguerilla
p4404
aVirregular
p4405
aVinsurgent
p4406
asVmistletoe
p4407
(lp4408
g4407
asVwalnut
p4409
(lp4410
g4409
asVdogfish
p4411
(lp4412
g4411
asVduckweed
p4413
(lp4414
g4413
asVorange
p4415
(lp4416
g4415
asVcriminal
p4417
(lp4418
g4417
aVfelon
p4419
aVcrook
p4420
aVoutlaw
p4421
aVmalefactor
p4422
asVoriginator
p4423
(lp4424
g4423
aVmastermind
p4425
asVfreeman
p4426
(lp4427
g4426
asVfritillary
p4428
(lp4429
Vfritillary
p4430
asVlunatic
p4431
(lp4432
g4431
aVmadman
p4433
aVmaniac
p4434
asVpython
p4435
(lp4436
g4435
asVdock
p4437
(lp4438
g4437
aVsorrel
p4439
asVsnake
p4440
(lp4441
g4440
aVserpent
p4442
aVophidian
p4443
asVflea
p4444
(lp4445
g4444
asVinvestor
p4446
(lp4447
g4446
asVmelilotus
p4448
(lp4449
g4448
asVgoldenrod
p4450
(lp4451
g4450
asVdivider
p4452
(lp4453
g4452
asVhagfish
p4454
(lp4455
g4454
aVhag
p4456
asVpewee
p4457
(lp4458
g4457
aVpeewee
p4459
aVpeewit
p4460
asVslacker
p4461
(lp4462
g4461
asVlilac
p4463
(lp4464
g4463
asVpurslane
p4465
(lp4466
g4465
asVcichlid
p4467
(lp4468
g4467
asVdepositor
p4469
(lp4470
g4469
asVcollegian
p4471
(lp4472
g4471
asVmollusk
p4473
(lp4474
g4473
aVmollusc
p4475
aVshellfish
p4476
asVprogrammer
p4477
(lp4478
g4477
aVcoder
p4479
asVturtledove
p4480
(lp4481
g4480
asVwitness
p4482
(lp4483
Vwitness
p4484
asVchevrotain
p4485
(lp4486
g4485
asVannouncer
p4487
(lp4488
Vannouncer
p4489
asVplum
p4490
(lp4491
g4490
asVbullfighter
p4492
(lp4493
g4492
aVtoreador
p4494
asVmessenger
p4495
(lp4496
g4495
aVcourier
p4497
asVbarley
p4498
(lp4499
g4498
asVgrebe
p4500
(lp4501
g4500
asVherder
p4502
(lp4503
g4502
aVherdsman
p4504
aVdrover
p4505
asVthrush
p4506
(lp4507
g4506
asVcricketer
p4508
(lp4509
g4508
asVstinkhorn
p4510
(lp4511
g4510
asVintruder
p4512
(lp4513
g4512
aVinterloper
p4514
aVtrespasser
p4515
asVdissenter
p4516
(lp4517
g4516
aVdissident
p4518
aVprotester
p4519
aVobjector
p4520
aVcontestant
p4521
asVdiapsid
p4522
(lp4523
g4522
asVprincess
p4524
(lp4525
g4524
asVtenant
p4526
(lp4527
Vtenant
p4528
asVretriever
p4529
(lp4530
g4529
asVshrew
p4531
(lp4532
Vshrew
p4533
aVtermagant
p4534
asVgeographer
p4535
(lp4536
g4535
asVcompulsive
p4537
(lp4538
g4537
asVgamekeeper
p4539
(lp4540
g4539
asVembryo
p4541
(lp4542
g4541
aVconceptus
p4543
asVinfantryman
p4544
(lp4545
g4544
aVmarcher
p4546
asVhadrosaur
p4547
(lp4548
g4547
aVhadrosaurus
p4549
asVmycoplasma
p4550
(lp4551
g4550
asVbitch
p4552
(lp4553
g4552
asVowner
p4554
(lp4555
Vowner
p4556
aVpossessor
p4557
asVhorseman
p4558
(lp4559
g4558
aVequestrian
p4560
asVmonkey
p4561
(lp4562
g4561
asVbargainer
p4563
(lp4564
g4563
asVgrantor
p4565
(lp4566
g4565
asVopossum
p4567
(lp4568
g4567
aVpossum
p4569
asVdewberry
p4570
(lp4571
g4570
asVsergeant
p4572
(lp4573
g4572
asVman
p4574
(lp4575
g4574
asVash
p4576
(lp4577
g4576
asVbulldog
p4578
(lp4579
g4578
asVageratum
p4580
(lp4581
g4580
asVnewlywed
p4582
(lp4583
g4582
aVhoneymooner
p4584
asVbodyguard
p4585
(lp4586
g4585
aVescort
p4587
asVcartoonist
p4588
(lp4589
g4588
asVgentile
p4590
(lp4591
g4590
aVgoy
p4592
asVbee
p4593
(lp4594
g4593
asVswindler
p4595
(lp4596
g4595
aVgouger
p4597
aVscammer
p4598
aVgrifter
p4599
asVlover
p4600
(lp4601
Vlover
p4602
asVtorturer
p4603
(lp4604
g4603
asVphonetician
p4605
(lp4606
g4605
asVanthropologist
p4607
(lp4608
g4607
asVbeggar
p4609
(lp4610
g4609
aVmendicant
p4611
asVbisexual
p4612
(lp4613
g4612
asVphytoplankton
p4614
(lp4615
g4614
asVmycobacteria
p4616
(lp4617
g4616
aVmycobacterium
p4618
asVoutdoorsman
p4619
(lp4620
g4619
asVreservist
p4621
(lp4622
g4621
asVgunnel
p4623
(lp4624
g4623
asVsurgeonfish
p4625
(lp4626
g4625
asVpharmacist
p4627
(lp4628
g4627
aVdruggist
p4629
aVchemist
p4630
aVapothecary
p4631
asVpursuer
p4632
(lp4633
g4632
aVchaser
p4634
asVfirefly
p4635
(lp4636
g4635
asVtapir
p4637
(lp4638
g4637
asVorach
p4639
(lp4640
g4639
asVachillea
p4641
(lp4642
g4641
asVgrandmaster
p4643
(lp4644
g4643
asVmimosa
p4645
(lp4646
g4645
asVcipher
p4647
(lp4648
g4647
aVcypher
p4649
aVnobody
p4650
aVnonentity
p4651
asVprisoner
p4652
(lp4653
g4652
aVcaptive
p4654
asVweeper
p4655
(lp4656
g4655
aVcrier
p4657
asVhypocrite
p4658
(lp4659
g4658
aVphony
p4660
aVphoney
p4661
aVpretender
p4662
asVacanthus
p4663
(lp4664
g4663
asVlocust
p4665
(lp4666
g4665
asVpenitent
p4667
(lp4668
g4667
asVinfielder
p4669
(lp4670
g4669
asVbusinessman
p4671
(lp4672
g4671
asVskunk
p4673
(lp4674
g4673
aVpolecat
p4675
asVkite
p4676
(lp4677
g4676
asVadjudicator
p4678
(lp4679
g4678
asVdependant
p4680
(lp4681
g4680
aVdependent
p4682
asVcutworm
p4683
(lp4684
g4683
asVhomeowner
p4685
(lp4686
g4685
aVhouseholder
p4687
asVtraitor
p4688
(lp4689
g4688
asVseaweed
p4690
(lp4691
g4690
asVchicken
p4692
(lp4693
g4692
asVeconomist
p4694
(lp4695
g4694
asVsupporter
p4696
(lp4697
g4696
aVprotagonist
p4698
aVchampion
p4699
aVadmirer
p4700
aVbooster
p4701
aVfriend
p4702
asVprincipal
p4703
(lp4704
Vprincipal
p4705
aVdealer
p4706
asVmanzanita
p4707
(lp4708
g4707
asVjay
p4709
(lp4710
g4709
asVwinner
p4711
(lp4712
Vwinner
p4713
asVneurobiologist
p4714
(lp4715
g4714
asVemployer
p4716
(lp4717
g4716
asVearner
p4718
(lp4719
g4718
asVoppressor
p4720
(lp4721
g4720
asVcommunist
p4722
(lp4723
g4722
aVcommie
p4724
asVhope
p4725
(lp4726
g4725
asVdaydreamer
p4727
(lp4728
g4727
asVscholiast
p4729
(lp4730
g4729
asVplaintiff
p4731
(lp4732
g4731
aVcomplainant
p4733
asVkillifish
p4734
(lp4735
g4734
asVascender
p4736
(lp4737
g4736
asVpimpernel
p4738
(lp4739
g4738
asVbear
p4740
(lp4741
g4740
asVbean
p4742
(lp4743
g4742
asVmagistrate
p4744
(lp4745
g4744
asVbuyer
p4746
(lp4747
g4746
aVpurchaser
p4748
aVemptor
p4749
aVvendee
p4750
asVbronco
p4751
(lp4752
g4751
aVbronc
p4753
aVbroncho
p4754
asVaspen
p4755
(lp4756
g4755
asVguillemot
p4757
(lp4758
g4757
asVtobacco
p4759
(lp4760
g4759
asVdeceiver
p4761
(lp4762
g4761
aVcheat
p4763
aVcheater
p4764
aVtrickster
p4765
aVslicker
p4766
asVjuror
p4767
(lp4768
g4767
asVkinglet
p4769
(lp4770
g4769
asVnightingale
p4771
(lp4772
g4771
asVwidow
p4773
(lp4774
g4773
asVdaffodil
p4775
(lp4776
g4775
asVnational
p4777
(lp4778
g4777
aVsubject
p4779
asVcanine
p4780
(lp4781
g4780
aVcanid
p4782
asVoutfielder
p4783
(lp4784
g4783
asVdesperate
p4785
(lp4786
g4785
asVviolet
p4787
(lp4788
g4787
asVegotist
p4789
(lp4790
g4789
aVegoist
p4791
asVbacteriophage
p4792
(lp4793
g4792
aVphage
p4794
asVacquirer
p4795
(lp4796
g4795
asVcloser
p4797
(lp4798
g4797
aVfinisher
p4799
asVliterate
p4800
(lp4801
g4800
asVlaureate
p4802
(lp4803
g4802
asVcouturier
p4804
(lp4805
g4804
aVdesigner
p4806
asVviper
p4807
(lp4808
g4807
asVbramble
p4809
(lp4810
g4809
asVandromeda
p4811
(lp4812
g4811
asVcatalpa
p4813
(lp4814
g4813
asVreovirus
p4815
(lp4816
g4815
asVgrouch
p4817
(lp4818
g4817
aVgrump
p4819
aVcrank
p4820
aVchurl
p4821
asVarticulator
p4822
(lp4823
g4822
asVboss
p4824
(lp4825
Vboss
p4826
aVhirer
p4827
asVswift
p4828
(lp4829
g4828
asVabsentee
p4830
(lp4831
g4830
asVmariposa
p4832
(lp4833
g4832
asVdrum
p4834
(lp4835
g4834
asVquitter
p4836
(lp4837
g4836
asVsaurian
p4838
(lp4839
g4838
asVswallow
p4840
(lp4841
g4840
asVbroom
p4842
(lp4843
g4842
asVbeautician
p4844
(lp4845
g4844
asVmigrant
p4846
(lp4847
g4846
asVundergraduate
p4848
(lp4849
g4848
aVundergrad
p4850
asVrhizopus
p4851
(lp4852
g4851
asVswimmer
p4853
(lp4854
Vswimmer
p4855
aVbather
p4856
asVyam
p4857
(lp4858
g4857
asVboatman
p4859
(lp4860
g4859
aVboater
p4861
aVwaterman
p4862
asVcalosoma
p4863
(lp4864
g4863
asVnewt
p4865
(lp4866
g4865
aVtriton
p4867
asVpoet
p4868
(lp4869
g4868
asVfreak
p4870
(lp4871
g4870
aVmonster
p4872
aVmonstrosity
p4873
asVanomaly
p4874
(lp4875
g4874
asVarborvitae
p4876
(lp4877
g4876
asVhyacinth
p4878
(lp4879
g4878
asVhomosexual
p4880
(lp4881
g4880
aVhomophile
p4882
aVhomo
p4883
aVgay
p4884
asVfinisher
p4885
(lp4886
Vfinisher
p4887
asVchlamydia
p4888
(lp4889
g4888
asVcommuter
p4890
(lp4891
g4890
asVpsychotherapist
p4892
(lp4893
g4892
asVcypress
p4894
(lp4895
g4894
asVangiosperm
p4896
(lp4897
g4896
asVspaniel
p4898
(lp4899
g4898
asVmannequin
p4900
(lp4901
g4900
aVmanikin
p4902
aVmannikin
p4903
aVmanakin
p4904
aVmodel
p4905
asVconeflower
p4906
(lp4907
Vconeflower
p4908
asVbull
p4909
(lp4910
g4909
asVdigger
p4911
(lp4912
g4911
asVpainter
p4913
(lp4914
Vpainter
p4915
asVvolunteer
p4916
(lp4917
g4916
asVdebtor
p4918
(lp4919
g4918
asVbearberry
p4920
(lp4921
g4920
asVvanilla
p4922
(lp4923
g4922
asValoe
p4924
(lp4925
g4924
asVpromoter
p4926
(lp4927
g4926
aVbooster
p4928
aVplugger
p4929
asVspeculator
p4930
(lp4931
g4930
aVplunger
p4932
asVadulterer
p4933
(lp4934
g4933
asVmutant
p4935
(lp4936
g4935
aVmutation
p4937
aVvariation
p4938
aVsport
p4939
asVaraucaria
p4940
(lp4941
g4940
asVexaminer
p4942
(lp4943
g4942
aVinspector
p4944
asVresident
p4945
(lp4946
g4945
aVoccupant
p4947
aVoccupier
p4948
asVcelebrant
p4949
(lp4950
g4949
aVcelebrator
p4951
asVsquid
p4952
(lp4953
g4952
asVcotoneaster
p4954
(lp4955
g4954
asVsterculia
p4956
(lp4957
g4956
asVpartner
p4958
(lp4959
g4958
asVoccultist
p4960
(lp4961
g4960
asVleafhopper
p4962
(lp4963
g4962
asVterrorist
p4964
(lp4965
g4964
asVbishop
p4966
(lp4967
g4966
asVmember
p4968
(lp4969
g4968
asVcitrus
p4970
(lp4971
g4970
asVspeaker
p4972
(lp4973
g4972
aVtalker
p4974
asVincumbent
p4975
(lp4976
g4975
aVofficeholder
p4977
asVparty
p4978
(lp4979
g4978
asVdisciple
p4980
(lp4981
g4980
aVadherent
p4982
asVsucculent
p4983
(lp4984
g4983
asVarbovirus
p4985
(lp4986
g4985
asVkiller
p4987
(lp4988
g4987
aVslayer
p4989
asVpractitioner
p4990
(lp4991
g4990
asVreactionary
p4992
(lp4993
g4992
aVultraconservative
p4994
asVfireman
p4995
(lp4996
g4995
aVfirefighter
p4997
asVeccentric
p4998
(lp4999
g4998
aVflake
p5000
aVoddball
p5001
aVgeek
p5002
asVoutcast
p5003
(lp5004
g5003
aVcastaway
p5005
aVpariah
p5006
asVexperimenter
p5007
(lp5008
g5007
asVlaborer
p5009
(lp5010
g5009
aVlabourer
p5011
aVjack
p5012
asVstudent
p5013
(lp5014
g5013
aVpupil
p5015
asVwhale
p5016
(lp5017
g5016
asVparachutist
p5018
(lp5019
g5018
asVfielder
p5020
(lp5021
g5020
asVspleenwort
p5022
(lp5023
g5022
asVcorrespondent
p5024
(lp5025
Vcorrespondent
p5026
aVnewspaperman
p5027
aVpressman
p5028
asVmasochist
p5029
(lp5030
g5029
asVbuilder
p5031
(lp5032
g5031
aVconstructor
p5033
asVspectator
p5034
(lp5035
g5034
aVwitness
p5036
aVviewer
p5037
aVwatcher
p5038
aVlooker
p5039
asVreseda
p5040
(lp5041
g5040
asVtypist
p5042
(lp5043
g5042
asVcampaigner
p5044
(lp5045
g5044
aVcandidate
p5046
aVnominee
p5047
asVrocker
p5048
(lp5049
g5048
asVhauler
p5050
(lp5051
g5050
asVcamel
p5052
(lp5053
g5052
asVfilefish
p5054
(lp5055
g5054
asVnovice
p5056
(lp5057
g5056
aVbeginner
p5058
aVtyro
p5059
aVtiro
p5060
aVinitiate
p5061
asVwren
p5062
(lp5063
g5062
asVexecutive
p5064
(lp5065
g5064
asVdomestic
p5066
(lp5067
g5066
asVcavalryman
p5068
(lp5069
g5068
aVtrooper
p5070
asVermine
p5071
(lp5072
g5071
asVbiologist
p5073
(lp5074
g5073
asVmonetarist
p5075
(lp5076
g5075
asVwether
p5077
(lp5078
g5077
asVcivet
p5079
(lp5080
g5079
asVclergyman
p5081
(lp5082
g5081
aVreverend
p5083
asVreformer
p5084
(lp5085
g5084
aVreformist
p5086
aVcrusader
p5087
asVsmith
p5088
(lp5089
Vsmith
p5090
aVmetalworker
p5091
asVappraiser
p5092
(lp5093
g5092
asVcitizen
p5094
(lp5095
g5094
asVpersimmon
p5096
(lp5097
g5096
asVkinswoman
p5098
(lp5099
g5098
asVstonecrop
p5100
(lp5101
g5100
asVchancellor
p5102
(lp5103
g5102
aVpremier
p5104
asVcedar
p5105
(lp5106
Vcedar
p5107
asVtick
p5108
(lp5109
g5108
asVdescendant
p5110
(lp5111
g5110
aVdescendent
p5112
asVonion
p5113
(lp5114
g5113
asVsauropod
p5115
(lp5116
g5115
asVclown
p5117
(lp5118
g5117
aVbuffoon
p5119
aVgoof
p5120
aVgoofball
p5121
asVparasite
p5122
(lp5123
g5122
asVjournalist
p5124
(lp5125
g5124
asVmartin
p5126
(lp5127
g5126
asVsmuggler
p5128
(lp5129
g5128
aVrunner
p5130
asVsetter
p5131
(lp5132
g5131
asVthief
p5133
(lp5134
g5133
aVstealer
p5135
asVauthority
p5136
(lp5137
Vauthority
p5138
asVwhiner
p5139
(lp5140
g5139
aVcomplainer
p5141
aVcrybaby
p5142
asVhomo
p5143
(lp5144
g5143
aVman
p5145
aVhuman
p5146
asVelitist
p5147
(lp5148
g5147
asVcowrie
p5149
(lp5150
g5149
aVcowry
p5151
asVcoreopsis
p5152
(lp5153
g5152
asVtaskmaster
p5154
(lp5155
g5154
asVearwig
p5156
(lp5157
g5156
asVtrainman
p5158
(lp5159
g5158
aVrailroader
p5160
aVrailwayman
p5161
asVungulate
p5162
(lp5163
g5162
asVhoarder
p5164
(lp5165
g5164
asVminer
p5166
(lp5167
g5166
asVrattlesnake
p5168
(lp5169
g5168
aVrattler
p5170
asVphilosopher
p5171
(lp5172
g5171
asVleader
p5173
(lp5174
g5173
asVunderwing
p5175
(lp5176
g5175
asVtrout
p5177
(lp5178
g5177
asVmurderer
p5179
(lp5180
g5179
aVliquidator
p5181
asVindividualist
p5182
(lp5183
g5182
asVsnapper
p5184
(lp5185
g5184
asVridley
p5186
(lp5187
g5186
asVlieutenant
p5188
(lp5189
g5188
asVhost
p5190
(lp5191
Vhost
p5192
aVinnkeeper
p5193
aVboniface
p5194
asVmite
p5195
(lp5196
g5195
asVadversary
p5197
(lp5198
g5197
aVantagonist
p5199
aVopponent
p5200
aVopposer
p5201
aVresister
p5202
asVpike
p5203
(lp5204
g5203
asVsister
p5205
(lp5206
Vsister
p5207
aVsis
p5208
asVpika
p5209
(lp5210
g5209
aVconey
p5211
aVcony
p5212
asVblenny
p5213
(lp5214
g5213
asVmastiff
p5215
(lp5216
g5215
asVpersuader
p5217
(lp5218
g5217
aVinducer
p5219
asVchurchgoer
p5220
(lp5221
g5220
asVcranberry
p5222
(lp5223
g5222
asVcandlewood
p5224
(lp5225
g5224
asVemperor
p5226
(lp5227
g5226
asVowl
p5228
(lp5229
g5228
aVhooter
p5230
asVreptile
p5231
(lp5232
g5231
aVreptilian
p5233
asVscreamer
p5234
(lp5235
g5234
asVloner
p5236
(lp5237
g5236
asVguard
p5238
(lp5239
g5238
asVmilitiaman
p5240
(lp5241
g5240
asVfemale
p5242
(lp5243
Vfemale
p5244
asVgurnard
p5245
(lp5246
g5245
asVdicot
p5247
(lp5248
g5247
asVgerbil
p5249
(lp5250
g5249
asVadolescent
p5251
(lp5252
g5251
aVstripling
p5253
aVteenager
p5254
aVteen
p5255
asVzoologist
p5256
(lp5257
g5256
asVrecruiter
p5258
(lp5259
Vrecruiter
p5260
asVwatchman
p5261
(lp5262
g5261
aVwatcher
p5263
asVaccountant
p5264
(lp5265
g5264
aVcomptroller
p5266
aVcontroller
p5267
asVmurre
p5268
(lp5269
g5268
asVcricket
p5270
(lp5271
g5270
asVcosmopolitan
p5272
(lp5273
g5272
aVcosmopolite
p5274
asVneutral
p5275
(lp5276
g5275
asVvalerian
p5277
(lp5278
g5277
asVtechnician
p5279
(lp5280
g5279
asVbrant
p5281
(lp5282
g5281
aVbrent
p5283
asVartemisia
p5284
(lp5285
g5284
asVcount
p5286
(lp5287
g5286
asVsheepherder
p5288
(lp5289
g5288
aVshepherd
p5290
asVsender
p5291
(lp5292
g5291
aVtransmitter
p5293
asVhitter
p5294
(lp5295
g5294
aVstriker
p5296
asVharvester
p5297
(lp5298
g5297
aVreaper
p5299
asVofficial
p5300
(lp5301
Vofficial
p5302
aVfunctionary
p5303
asVleech
p5304
(lp5305
g5304
aVbloodsucker
p5306
asVlynx
p5307
(lp5308
g5307
aVcatamount
p5309
asVsigner
p5310
(lp5311
g5310
aVsignatory
p5312
asVhorticulturist
p5313
(lp5314
g5313
aVplantsman
p5315
asVmarmot
p5316
(lp5317
g5316
asVplunderer
p5318
(lp5319
g5318
aVpillager
p5320
aVlooter
p5321
aVspoiler
p5322
aVraider
p5323
aVfreebooter
p5324
asVsibling
p5325
(lp5326
g5325
aVsib
p5327
asVabbot
p5328
(lp5329
g5328
aVarchimandrite
p5330
asVsquirrel
p5331
(lp5332
g5331
asVdiplomat
p5333
(lp5334
g5333
aVdiplomatist
p5335
asVplebeian
p5336
(lp5337
g5336
asVsalesman
p5338
(lp5339
g5338
asVoak
p5340
(lp5341
g5340
asVoat
p5342
(lp5343
g5342
asVgannet
p5344
(lp5345
g5344
asVragweed
p5346
(lp5347
g5346
aVambrosia
p5348
asVfinch
p5349
(lp5350
g5349
asVbollworm
p5351
(lp5352
g5351
asVchemist
p5353
(lp5354
g5353
asVdresser
p5355
(lp5356
g5355
asVbindweed
p5357
(lp5358
g5357
asVstar
p5359
(lp5360
g5359
aVprincipal
p5361
aVlead
p5362
asVwoodruff
p5363
(lp5364
g5363
asVtraditionalist
p5365
(lp5366
g5365
aVdiehard
p5367
asVstag
p5368
(lp5369
g5368
asVarbiter
p5370
(lp5371
g5370
aVarbitrator
p5372
aVumpire
p5373
asVcoccus
p5374
(lp5375
g5374
aVcocci
p5376
asVbivalve
p5377
(lp5378
g5377
asVquetzal
p5379
(lp5380
g5379
asVflatfish
p5381
(lp5382
g5381
asVhiker
p5383
(lp5384
g5383
aVtramp
p5385
asVmercenary
p5386
(lp5387
g5386
asVadjutant
p5388
(lp5389
g5388
aVaide
p5390
aVaide-de-camp
p5391
as.